GAS LISTING /tmp/cczTAwSh.s 			page 1


   1              		.file	"main.cpp"
   2              		.option pic
   3              		.option norelax
   4              		.text
   5              	.Ltext0:
   6              		.align	2
   7              		.globl	_Z11userWrapperPv
   9              	_Z11userWrapperPv:
  10              	.LFB44:
  11              		.file 1 "src/main.cpp"
   1:src/main.cpp  **** #include "../h/TCB.hpp"
   2:src/main.cpp  **** #include "../h/Riscv.hpp"
   3:src/main.cpp  **** #include "../h/syscall_cpp.hpp"
   4:src/main.cpp  **** 
   5:src/main.cpp  **** extern void userMain();
   6:src/main.cpp  **** 
   7:src/main.cpp  **** void userWrapper(void*){ //thread_create ocekuje funkciju tipa void (*)(void*)
  12              		.loc 1 7 24
  13              		.cfi_startproc
  14 0000 130101FF 		addi	sp,sp,-16
  15              		.cfi_def_cfa_offset 16
  16 0004 23341100 		sd	ra,8(sp)
  17 0008 23308100 		sd	s0,0(sp)
  18              		.cfi_offset 1, -8
  19              		.cfi_offset 8, -16
  20 000c 13040101 		addi	s0,sp,16
  21              		.cfi_def_cfa 8, 0
   8:src/main.cpp  ****     userMain();
  22              		.loc 1 8 5
  23              		.loc 1 8 13 is_stmt 0
  24 0010 97000000 		call	_Z8userMainv@plt
  24      E7800000 
  25              	.LVL0:
   9:src/main.cpp  **** }
  26              		.loc 1 9 1
  27 0018 83308100 		ld	ra,8(sp)
  28              		.cfi_restore 1
  29 001c 03340100 		ld	s0,0(sp)
  30              		.cfi_restore 8
  31              		.cfi_def_cfa 2, 16
  32 0020 13010101 		addi	sp,sp,16
  33              		.cfi_def_cfa_offset 0
  34 0024 67800000 		jr	ra
  35              		.cfi_endproc
  36              	.LFE44:
  38              		.align	2
  39              		.globl	main
  41              	main:
  42              	.LFB45:
  10:src/main.cpp  **** 
  11:src/main.cpp  **** int main(){ //supervisor
  43              		.loc 1 11 11 is_stmt 1
  44              		.cfi_startproc
  45 0028 130101FE 		addi	sp,sp,-32
  46              		.cfi_def_cfa_offset 32
  47 002c 233C1100 		sd	ra,24(sp)
  48 0030 23388100 		sd	s0,16(sp)
GAS LISTING /tmp/cczTAwSh.s 			page 2


  49              		.cfi_offset 1, -8
  50              		.cfi_offset 8, -16
  51 0034 13040102 		addi	s0,sp,32
  52              		.cfi_def_cfa 8, 0
  12:src/main.cpp  **** 	MemoryAllocator::init();
  53              		.loc 1 12 2
  54              		.loc 1 12 23 is_stmt 0
  55 0038 97000000 		call	_ZN15MemoryAllocator4initEv@plt
  55      E7800000 
  56              	.LVL1:
  13:src/main.cpp  ****     Riscv::w_stvec((uint64)&Riscv::supervisorTrap);  //postavljanje trap handler-a, stvec adresa pr
  57              		.loc 1 13 5 is_stmt 1
  58              		.loc 1 13 19 is_stmt 0
  59 0040 97070000 		la	a5,_ZN5Riscv14supervisorTrapEv
  59      83B70700 
  60              	.LVL2:
  61              	.LBB13:
  62              	.LBB14:
  63              		.file 2 "src/../h/Riscv.hpp"
   1:src/../h/Riscv.hpp **** #ifndef RISCV_H
   2:src/../h/Riscv.hpp **** #define RISCV_H
   3:src/../h/Riscv.hpp **** 
   4:src/../h/Riscv.hpp **** #include "../lib/hw.h"
   5:src/../h/Riscv.hpp **** #include "MemoryAllocator.hpp"
   6:src/../h/Riscv.hpp **** #include "TCB.hpp"
   7:src/../h/Riscv.hpp **** #include "SemaphoreC.hpp"
   8:src/../h/Riscv.hpp **** #include "../lib/console.h"
   9:src/../h/Riscv.hpp **** #include "../test/printing.hpp"
  10:src/../h/Riscv.hpp **** 
  11:src/../h/Riscv.hpp **** 
  12:src/../h/Riscv.hpp **** enum Interrupts{ // BNT | vrednost
  13:src/../h/Riscv.hpp ****     ECALL_USER = 0x00UL  | 0x08, //ecall iz korisnickog rezima 0000000000000008
  14:src/../h/Riscv.hpp ****     ECALL_SUPERVISOR = 0x00UL  | 0x09, //ecall iz sistemskog rezima 0000000000000009
  15:src/../h/Riscv.hpp ****     ILLEGAL_INSTRUCTION = 0x00UL  | 0x02, //ilegalna instrukcija
  16:src/../h/Riscv.hpp ****     STORE_ACCESS_FAULT = 0x00UL  | 0x05, //nedozvoljena adresa citanja
  17:src/../h/Riscv.hpp ****     LOAD_ACCESS_FAULT = 0x00UL  | 0x07, //nedozvoljena adresa upisa
  18:src/../h/Riscv.hpp ****     TIMER = 0x01UL << 63 | 0x1,
  19:src/../h/Riscv.hpp ****     CONSOLE_RISCV = 0x01UL << 63 | 0x9
  20:src/../h/Riscv.hpp ****  };
  21:src/../h/Riscv.hpp **** 
  22:src/../h/Riscv.hpp **** 
  23:src/../h/Riscv.hpp **** class Riscv {
  24:src/../h/Riscv.hpp **** public:
  25:src/../h/Riscv.hpp **** 
  26:src/../h/Riscv.hpp ****   static void handleSupervisorTrap();
  27:src/../h/Riscv.hpp ****   static void supervisorTrap();
  28:src/../h/Riscv.hpp ****   static void popSppSpie();
  29:src/../h/Riscv.hpp **** 
  30:src/../h/Riscv.hpp **** //opis razloga prelaska u sistemski rezim
  31:src/../h/Riscv.hpp ****   static uint64 r_scause();
  32:src/../h/Riscv.hpp ****   static void w_scause(uint64 scause);
  33:src/../h/Riscv.hpp **** 
  34:src/../h/Riscv.hpp **** //sacuvana vrednost registra pc u korisnickom rezimu
  35:src/../h/Riscv.hpp ****   static uint64 r_sepc();
  36:src/../h/Riscv.hpp ****   static void w_sepc(uint64 sepc);
  37:src/../h/Riscv.hpp **** 
  38:src/../h/Riscv.hpp **** //adresa prekinute rutine poravnata na 4 bajta
GAS LISTING /tmp/cczTAwSh.s 			page 3


  39:src/../h/Riscv.hpp ****   static uint64 r_stvec();
  40:src/../h/Riscv.hpp ****   static void w_stvec(uint64 stvec);
  41:src/../h/Riscv.hpp **** 
  42:src/../h/Riscv.hpp **** //supervison trap value
  43:src/../h/Riscv.hpp ****   static uint64 r_stval();
  44:src/../h/Riscv.hpp ****   static void w_stval(uint64 stval);
  45:src/../h/Riscv.hpp **** 
  46:src/../h/Riscv.hpp **** //sip supervisor interupt pending
  47:src/../h/Riscv.hpp **** //sie supervisor interupt enable
  48:src/../h/Riscv.hpp **** 
  49:src/../h/Riscv.hpp ****   enum BitMaskSstatus{
  50:src/../h/Riscv.hpp ****     SSTATUS_SPP=(1UL<<8),
  51:src/../h/Riscv.hpp ****     SSTATUS_SIE=(1UL<<1),
  52:src/../h/Riscv.hpp ****     SSTATUS_SPIE=(1UL<<5)
  53:src/../h/Riscv.hpp ****   };
  54:src/../h/Riscv.hpp **** 
  55:src/../h/Riscv.hpp ****   enum BitMaskSip: uint64 {
  56:src/../h/Riscv.hpp ****     SIP_SSIP=(1UL<<1),
  57:src/../h/Riscv.hpp ****     SIP_SEIP=(1UL<<9)
  58:src/../h/Riscv.hpp ****   };
  59:src/../h/Riscv.hpp **** 
  60:src/../h/Riscv.hpp ****   static void ms_sip(uint64 mask); //mask set
  61:src/../h/Riscv.hpp ****   static void mc_sip(uint64 mask); //mask clear
  62:src/../h/Riscv.hpp ****   static uint64 r_sip(); //read
  63:src/../h/Riscv.hpp ****   static void w_sip(uint64 sip); //write
  64:src/../h/Riscv.hpp **** 
  65:src/../h/Riscv.hpp ****   static void ms_sstatus(uint64 mask);
  66:src/../h/Riscv.hpp ****   static void mc_sstatus(uint64 mask);
  67:src/../h/Riscv.hpp ****   static uint64 r_sstatus();
  68:src/../h/Riscv.hpp ****   static void w_sstatus(uint64 sip);
  69:src/../h/Riscv.hpp **** 
  70:src/../h/Riscv.hpp **** };
  71:src/../h/Riscv.hpp **** 
  72:src/../h/Riscv.hpp **** inline uint64 Riscv::r_scause(){
  73:src/../h/Riscv.hpp ****   uint64 volatile scause;
  74:src/../h/Riscv.hpp ****   __asm__ volatile("csrr %[scause], scause" : [scause] "=r" (scause));
  75:src/../h/Riscv.hpp ****   return scause;
  76:src/../h/Riscv.hpp **** }
  77:src/../h/Riscv.hpp **** 
  78:src/../h/Riscv.hpp **** inline void Riscv::w_scause(uint64 scause){
  79:src/../h/Riscv.hpp ****   __asm__ volatile("csrw scause, %[scause]" : : [scause] "r" (scause));
  80:src/../h/Riscv.hpp **** }
  81:src/../h/Riscv.hpp **** 
  82:src/../h/Riscv.hpp **** inline uint64 Riscv::r_sepc(){
  83:src/../h/Riscv.hpp ****   uint64 volatile sepc;
  84:src/../h/Riscv.hpp ****   __asm__ volatile("csrr %[sepc], sepc" : [sepc] "=r" (sepc));
  85:src/../h/Riscv.hpp ****   return sepc;
  86:src/../h/Riscv.hpp **** }
  87:src/../h/Riscv.hpp **** 
  88:src/../h/Riscv.hpp **** inline void Riscv::w_sepc(uint64 sepc){
  89:src/../h/Riscv.hpp ****   __asm__ volatile("csrw sepc, %[sepc]" : : [sepc] "r" (sepc));
  90:src/../h/Riscv.hpp **** }
  91:src/../h/Riscv.hpp **** 
  92:src/../h/Riscv.hpp **** inline uint64 Riscv::r_stvec(){
  93:src/../h/Riscv.hpp ****   uint64 volatile stvec;
  94:src/../h/Riscv.hpp ****   __asm__ volatile("csrr %[stvec], stvec" : [stvec] "=r" (stvec));
  95:src/../h/Riscv.hpp ****   return stvec;
GAS LISTING /tmp/cczTAwSh.s 			page 4


  96:src/../h/Riscv.hpp **** }
  97:src/../h/Riscv.hpp **** 
  98:src/../h/Riscv.hpp **** inline void Riscv::w_stvec(uint64 stvec){
  99:src/../h/Riscv.hpp ****   __asm__ volatile("csrw stvec, %[stvec]" : : [stvec] "r" (stvec));
  64              		.loc 2 99 3 is_stmt 1
  65              		.loc 2 99 67 is_stmt 0
  66              	#APP
  67              	# 99 "src/../h/Riscv.hpp" 1
 100              	}
  68              		csrw stvec, a5
  69              	# 0 "" 2
  70              	.LVL3:
  71              	#NO_APP
  72              	.LBE14:
  73              	.LBE13:
  14:src/main.cpp  **** 
  15:src/main.cpp  ****     TCB* idleThread = new TCB(nullptr, nullptr, nullptr); //kernel nit, nema telo, uvek spremna
  74              		.loc 1 15 5 is_stmt 1
  75              	.LBB15:
  76              	.LBB16:
  77              		.file 3 "src/../h/TCB.hpp"
   1:src/../h/TCB.hpp **** #ifndef TCB_H
   2:src/../h/TCB.hpp **** #define TCB_H
   3:src/../h/TCB.hpp **** 
   4:src/../h/TCB.hpp **** #include "../lib/hw.h"
   5:src/../h/TCB.hpp **** #include "list.hpp"
   6:src/../h/TCB.hpp **** #include "Scheduler.hpp"
   7:src/../h/TCB.hpp **** #include "MemoryAllocator.hpp"
   8:src/../h/TCB.hpp **** #include "Riscv.hpp"
   9:src/../h/TCB.hpp **** 
  10:src/../h/TCB.hpp **** class TCB{
  11:src/../h/TCB.hpp **** public:
  12:src/../h/TCB.hpp ****     using Body = void(*)(void*);
  13:src/../h/TCB.hpp **** 
  14:src/../h/TCB.hpp **** 	//overwrite new i delete
  15:src/../h/TCB.hpp ****     void *operator new(size_t size){
  16:src/../h/TCB.hpp ****       return MemoryAllocator::mem_alloc((size + MEM_BLOCK_SIZE-1)/MEM_BLOCK_SIZE);
  78              		.loc 3 16 7
  79              		.loc 3 16 40 is_stmt 0
  80 004c 13051000 		li	a0,1
  81 0050 97000000 		call	_ZN15MemoryAllocator9mem_allocEm@plt
  81      E7800000 
  82              	.LVL4:
  83              	.LBE16:
  84              	.LBE15:
  85              	.LBB17:
  86              	.LBB18:
  17:src/../h/TCB.hpp ****     }
  18:src/../h/TCB.hpp ****     void operator delete(void* el) noexcept{
  19:src/../h/TCB.hpp ****       MemoryAllocator::mem_free(el);
  20:src/../h/TCB.hpp ****     }
  21:src/../h/TCB.hpp ****     void *operator new[](size_t size){
  22:src/../h/TCB.hpp ****       return MemoryAllocator::mem_alloc((size + MEM_BLOCK_SIZE-1)/MEM_BLOCK_SIZE);
  23:src/../h/TCB.hpp ****     }
  24:src/../h/TCB.hpp ****     void operator delete[](void* el) noexcept{
  25:src/../h/TCB.hpp ****        MemoryAllocator::mem_free(el);
  26:src/../h/TCB.hpp ****     }
GAS LISTING /tmp/cczTAwSh.s 			page 5


  27:src/../h/TCB.hpp **** 
  28:src/../h/TCB.hpp ****     //destruktor
  29:src/../h/TCB.hpp ****     ~TCB(){
  30:src/../h/TCB.hpp ****       MemoryAllocator::mem_free(stack);
  31:src/../h/TCB.hpp ****     }
  32:src/../h/TCB.hpp **** 
  33:src/../h/TCB.hpp **** 	//konstruktor
  34:src/../h/TCB.hpp **** 	explicit TCB(Body body, void* arg, uint64* stack_space) :
  35:src/../h/TCB.hpp **** 		body(body),
  36:src/../h/TCB.hpp **** 		finished(false),
  37:src/../h/TCB.hpp **** 		blocked(false)
  87              		.loc 3 37 16
  88 0058 23300500 		sd	zero,0(a0)
  89 005c 23040502 		sb	zero,40(a0)
  90 0060 A3040502 		sb	zero,41(a0)
  38:src/../h/TCB.hpp **** 	{
  39:src/../h/TCB.hpp ****         stack = stack_space != nullptr ? stack_space : nullptr;
  91              		.loc 3 39 9 is_stmt 1
  92              		.loc 3 39 15 is_stmt 0
  93 0064 23380500 		sd	zero,16(a0)
  40:src/../h/TCB.hpp ****         context.ra = (uint64)&wrapper; //postavi wrapper kao pocetnu tacku
  94              		.loc 3 40 9 is_stmt 1
  95              		.loc 3 40 20 is_stmt 0
  96 0068 97070000 		la	a5,_ZN3TCB7wrapperEPv
  96      83B70700 
  97 0070 233CF500 		sd	a5,24(a0)
  41:src/../h/TCB.hpp ****         context.sp = (uint64)&stack[DEFAULT_STACK_SIZE/sizeof(uint64)];
  98              		.loc 3 41 9 is_stmt 1
  99              		.loc 3 41 20 is_stmt 0
 100 0074 B7170000 		li	a5,4096
 101 0078 2330F502 		sd	a5,32(a0)
  42:src/../h/TCB.hpp ****         this->arg = arg;
 102              		.loc 3 42 9 is_stmt 1
 103              		.loc 3 42 19 is_stmt 0
 104 007c 23340500 		sd	zero,8(a0)
  43:src/../h/TCB.hpp ****         if(body != nullptr) {Scheduler::put(this);}
 105              		.loc 3 43 9 is_stmt 1
 106              	.LVL5:
 107              	.LBE18:
 108              	.LBE17:
  16:src/main.cpp  **** 	TCB::running = idleThread; //postavlja se kao tekuca nit
 109              		.loc 1 16 2
 110              		.loc 1 16 15 is_stmt 0
 111 0080 97070000 		la	a5,_ZN3TCB7runningE
 111      83B70700 
 112 0088 23B0A700 		sd	a0,0(a5)
  17:src/main.cpp  **** 
  18:src/main.cpp  **** 	TCB* userThread = nullptr; //priprema za korisnicki main
 113              		.loc 1 18 2 is_stmt 1
 114              		.loc 1 18 7 is_stmt 0
 115 008c 233404FE 		sd	zero,-24(s0)
  19:src/main.cpp  ****     thread_create(&userThread, &userWrapper, nullptr); //kreiranje niti za korisnicki kod
 116              		.loc 1 19 5 is_stmt 1
 117              		.loc 1 19 18 is_stmt 0
 118 0090 13060000 		li	a2,0
 119 0094 97050000 		lla	a1,_Z11userWrapperPv
 119      93850500 
GAS LISTING /tmp/cczTAwSh.s 			page 6


 120 009c 130584FE 		addi	a0,s0,-24
 121              	.LVL6:
 122 00a0 97000000 		call	_Z13thread_createPP3TCBPFvPvES2_@plt
 122      E7800000 
 123              	.LVL7:
 124              	.L5:
  20:src/main.cpp  **** 
  21:src/main.cpp  ****     while(!(userThread->isFinished())) { //dok se user main ne zavsrsi
 125              		.loc 1 21 5 is_stmt 1
 126              		.loc 1 21 11
 127              		.loc 1 21 35 is_stmt 0
 128 00a8 833784FE 		ld	a5,-24(s0)
 129              	.LVL8:
 130              	.LBB19:
 131              	.LBB20:
  44:src/../h/TCB.hpp ****     }
  45:src/../h/TCB.hpp **** 
  46:src/../h/TCB.hpp **** 	//getteri i setteri
  47:src/../h/TCB.hpp ****     bool isFinished() const{ return finished; }
 132              		.loc 3 47 30 is_stmt 1
 133              		.loc 3 47 37 is_stmt 0
 134 00ac 83C78702 		lbu	a5,40(a5)
 135              	.LVL9:
 136              	.LBE20:
 137              	.LBE19:
 138              		.loc 1 21 11
 139 00b0 63980700 		bnez	a5,.L4
  22:src/main.cpp  ****         thread_dispatch();   //scheduler uzima userThread iz reda
 140              		.loc 1 22 9 is_stmt 1
 141              		.loc 1 22 24 is_stmt 0
 142 00b4 97000000 		call	_Z15thread_dispatchv@plt
 142      E7800000 
 143              	.LVL10:
 144 00bc 6FF0DFFE 		j	.L5
 145              	.L4:
  23:src/main.cpp  ****     }
  24:src/main.cpp  ****     return 0;
 146              		.loc 1 24 5 is_stmt 1
  25:src/main.cpp  **** }...
 147              		.loc 1 25 1 is_stmt 0
 148 00c0 13050000 		li	a0,0
 149 00c4 83308101 		ld	ra,24(sp)
 150              		.cfi_restore 1
 151 00c8 03340101 		ld	s0,16(sp)
 152              		.cfi_restore 8
 153              		.cfi_def_cfa 2, 32
 154 00cc 13010102 		addi	sp,sp,32
 155              		.cfi_def_cfa_offset 0
 156 00d0 67800000 		jr	ra
 157              		.cfi_endproc
 158              	.LFE45:
 160              	.Letext0:
 161              		.file 4 "src/../h/../lib/hw.h"
 162              		.file 5 "src/../h/Scheduler.hpp"
 163              		.file 6 "src/../h/list.hpp"
 164              		.file 7 "src/../h/MemoryAllocator.hpp"
 165              		.file 8 "src/../h/../test/../h/syscall_c.hpp"
GAS LISTING /tmp/cczTAwSh.s 			page 7


GAS LISTING /tmp/cczTAwSh.s 			page 8


DEFINED SYMBOLS
                            *ABS*:0000000000000000 main.cpp
     /tmp/cczTAwSh.s:9      .text:0000000000000000 _Z11userWrapperPv
     /tmp/cczTAwSh.s:13     .text:0000000000000000 .L0 
     /tmp/cczTAwSh.s:14     .text:0000000000000000 .L0 
     /tmp/cczTAwSh.s:15     .text:0000000000000004 .L0 
     /tmp/cczTAwSh.s:18     .text:000000000000000c .L0 
     /tmp/cczTAwSh.s:19     .text:000000000000000c .L0 
     /tmp/cczTAwSh.s:21     .text:0000000000000010 .L0 
     /tmp/cczTAwSh.s:23     .text:0000000000000010 .L0 
     /tmp/cczTAwSh.s:24     .text:0000000000000010 .L0 
     /tmp/cczTAwSh.s:27     .text:0000000000000018 .L0 
     /tmp/cczTAwSh.s:28     .text:000000000000001c .L0 
     /tmp/cczTAwSh.s:30     .text:0000000000000020 .L0 
     /tmp/cczTAwSh.s:31     .text:0000000000000020 .L0 
     /tmp/cczTAwSh.s:33     .text:0000000000000024 .L0 
     /tmp/cczTAwSh.s:35     .text:0000000000000028 .L0 
     /tmp/cczTAwSh.s:41     .text:0000000000000028 main
     /tmp/cczTAwSh.s:44     .text:0000000000000028 .L0 
     /tmp/cczTAwSh.s:45     .text:0000000000000028 .L0 
     /tmp/cczTAwSh.s:46     .text:000000000000002c .L0 
     /tmp/cczTAwSh.s:49     .text:0000000000000034 .L0 
     /tmp/cczTAwSh.s:50     .text:0000000000000034 .L0 
     /tmp/cczTAwSh.s:52     .text:0000000000000038 .L0 
     /tmp/cczTAwSh.s:54     .text:0000000000000038 .L0 
     /tmp/cczTAwSh.s:55     .text:0000000000000038 .L0 
     /tmp/cczTAwSh.s:58     .text:0000000000000040 .L0 
     /tmp/cczTAwSh.s:59     .text:0000000000000040 .L0 
     /tmp/cczTAwSh.s:65     .text:0000000000000048 .L0 
  src/../h/Riscv.hpp:99     .text:0000000000000048 .L0 
     /tmp/cczTAwSh.s:78     .text:000000000000004c .L0 
     /tmp/cczTAwSh.s:79     .text:000000000000004c .L0 
     /tmp/cczTAwSh.s:80     .text:000000000000004c .L0 
     /tmp/cczTAwSh.s:88     .text:0000000000000058 .L0 
     /tmp/cczTAwSh.s:92     .text:0000000000000064 .L0 
     /tmp/cczTAwSh.s:93     .text:0000000000000064 .L0 
     /tmp/cczTAwSh.s:95     .text:0000000000000068 .L0 
     /tmp/cczTAwSh.s:96     .text:0000000000000068 .L0 
     /tmp/cczTAwSh.s:99     .text:0000000000000074 .L0 
     /tmp/cczTAwSh.s:100    .text:0000000000000074 .L0 
     /tmp/cczTAwSh.s:103    .text:000000000000007c .L0 
     /tmp/cczTAwSh.s:104    .text:000000000000007c .L0 
     /tmp/cczTAwSh.s:109    .text:0000000000000080 .L0 
     /tmp/cczTAwSh.s:110    .text:0000000000000080 .L0 
     /tmp/cczTAwSh.s:111    .text:0000000000000080 .L0 
     /tmp/cczTAwSh.s:114    .text:000000000000008c .L0 
     /tmp/cczTAwSh.s:115    .text:000000000000008c .L0 
     /tmp/cczTAwSh.s:117    .text:0000000000000090 .L0 
     /tmp/cczTAwSh.s:118    .text:0000000000000090 .L0 
     /tmp/cczTAwSh.s:126    .text:00000000000000a8 .L0 
     /tmp/cczTAwSh.s:127    .text:00000000000000a8 .L0 
     /tmp/cczTAwSh.s:128    .text:00000000000000a8 .L0 
     /tmp/cczTAwSh.s:133    .text:00000000000000ac .L0 
     /tmp/cczTAwSh.s:134    .text:00000000000000ac .L0 
     /tmp/cczTAwSh.s:139    .text:00000000000000b0 .L0 
     /tmp/cczTAwSh.s:141    .text:00000000000000b4 .L0 
     /tmp/cczTAwSh.s:142    .text:00000000000000b4 .L0 
GAS LISTING /tmp/cczTAwSh.s 			page 9


     /tmp/cczTAwSh.s:147    .text:00000000000000c0 .L0 
     /tmp/cczTAwSh.s:148    .text:00000000000000c0 .L0 
     /tmp/cczTAwSh.s:150    .text:00000000000000c8 .L0 
     /tmp/cczTAwSh.s:152    .text:00000000000000cc .L0 
     /tmp/cczTAwSh.s:153    .text:00000000000000cc .L0 
     /tmp/cczTAwSh.s:155    .text:00000000000000d0 .L0 
     /tmp/cczTAwSh.s:157    .text:00000000000000d4 .L0 
     /tmp/cczTAwSh.s:166    .text:00000000000000d4 .L0 
     /tmp/cczTAwSh.s:59     .text:0000000000000040 .L0 
     /tmp/cczTAwSh.s:96     .text:0000000000000068 .L0 
     /tmp/cczTAwSh.s:111    .text:0000000000000080 .L0 
     /tmp/cczTAwSh.s:119    .text:0000000000000094 .L0 
     /tmp/cczTAwSh.s:145    .text:00000000000000c0 .L4
     /tmp/cczTAwSh.s:124    .text:00000000000000a8 .L5
     /tmp/cczTAwSh.s:1387   .debug_abbrev:0000000000000000 .Ldebug_abbrev0
     /tmp/cczTAwSh.s:2710   .debug_str:00000000000007b7 .LASF146
     /tmp/cczTAwSh.s:2512   .debug_str:0000000000000252 .LASF147
     /tmp/cczTAwSh.s:2552   .debug_str:000000000000036e .LASF148
     /tmp/cczTAwSh.s:5      .text:0000000000000000 .Ltext0
     /tmp/cczTAwSh.s:160    .text:00000000000000d4 .Letext0
     /tmp/cczTAwSh.s:2442   .debug_line:0000000000000000 .Ldebug_line0
     /tmp/cczTAwSh.s:2550   .debug_str:0000000000000361 .LASF0
     /tmp/cczTAwSh.s:2574   .debug_str:000000000000041d .LASF1
     /tmp/cczTAwSh.s:2654   .debug_str:0000000000000668 .LASF2
     /tmp/cczTAwSh.s:2662   .debug_str:00000000000006a5 .LASF4
     /tmp/cczTAwSh.s:2560   .debug_str:00000000000003ab .LASF3
     /tmp/cczTAwSh.s:2454   .debug_str:0000000000000063 .LASF5
     /tmp/cczTAwSh.s:2628   .debug_str:00000000000005a7 .LASF6
     /tmp/cczTAwSh.s:2566   .debug_str:00000000000003e9 .LASF7
     /tmp/cczTAwSh.s:2524   .debug_str:0000000000000293 .LASF8
     /tmp/cczTAwSh.s:2532   .debug_str:00000000000002d7 .LASF9
     /tmp/cczTAwSh.s:2478   .debug_str:0000000000000127 .LASF10
     /tmp/cczTAwSh.s:2510   .debug_str:0000000000000243 .LASF11
     /tmp/cczTAwSh.s:2490   .debug_str:0000000000000181 .LASF12
     /tmp/cczTAwSh.s:2476   .debug_str:0000000000000117 .LASF13
     /tmp/cczTAwSh.s:2696   .debug_str:0000000000000777 .LASF14
     /tmp/cczTAwSh.s:2502   .debug_str:00000000000001d8 .LASF15
     /tmp/cczTAwSh.s:2684   .debug_str:0000000000000721 .LASF16
     /tmp/cczTAwSh.s:2522   .debug_str:0000000000000289 .LASF17
     /tmp/cczTAwSh.s:2734   .debug_str:0000000000000915 .LASF149
     /tmp/cczTAwSh.s:2756   .debug_str:00000000000009c8 .LASF150
     /tmp/cczTAwSh.s:2538   .debug_str:0000000000000302 .LASF151
     /tmp/cczTAwSh.s:2736   .debug_str:0000000000000921 .LASF18
     /tmp/cczTAwSh.s:2724   .debug_str:00000000000008db .LASF152
     /tmp/cczTAwSh.s:2688   .debug_str:000000000000074a .LASF19
     /tmp/cczTAwSh.s:2610   .debug_str:000000000000050e .LASF20
     /tmp/cczTAwSh.s:2604   .debug_str:00000000000004ea .LASF21
     /tmp/cczTAwSh.s:2686   .debug_str:0000000000000737 .LASF23
     /tmp/cczTAwSh.s:2508   .debug_str:000000000000022c .LASF28
     /tmp/cczTAwSh.s:2658   .debug_str:0000000000000683 .LASF153
     /tmp/cczTAwSh.s:2648   .debug_str:000000000000063d .LASF154
     /tmp/cczTAwSh.s:2570   .debug_str:000000000000040f .LASF22
     /tmp/cczTAwSh.s:2472   .debug_str:00000000000000e5 .LASF24
     /tmp/cczTAwSh.s:2582   .debug_str:0000000000000444 .LASF25
     /tmp/cczTAwSh.s:2504   .debug_str:00000000000001ee .LASF26
     /tmp/cczTAwSh.s:2626   .debug_str:000000000000059b .LASF27
     /tmp/cczTAwSh.s:2738   .debug_str:000000000000092b .LASF29
GAS LISTING /tmp/cczTAwSh.s 			page 10


     /tmp/cczTAwSh.s:2672   .debug_str:00000000000006d3 .LASF30
     /tmp/cczTAwSh.s:2564   .debug_str:00000000000003cc .LASF31
     /tmp/cczTAwSh.s:2766   .debug_str:0000000000000a28 .LASF32
     /tmp/cczTAwSh.s:2758   .debug_str:00000000000009dc .LASF33
     /tmp/cczTAwSh.s:2642   .debug_str:000000000000061f .LASF34
     /tmp/cczTAwSh.s:2448   .debug_str:0000000000000015 .LASF35
     /tmp/cczTAwSh.s:2670   .debug_str:00000000000006cb .LASF36
     /tmp/cczTAwSh.s:2636   .debug_str:00000000000005df .LASF37
     /tmp/cczTAwSh.s:2700   .debug_str:000000000000078c .LASF73
     /tmp/cczTAwSh.s:2762   .debug_str:0000000000000a13 .LASF38
     /tmp/cczTAwSh.s:2528   .debug_str:00000000000002af .LASF39
     /tmp/cczTAwSh.s:2446   .debug_str:0000000000000005 .LASF42
     /tmp/cczTAwSh.s:2584   .debug_str:000000000000044c .LASF44
     /tmp/cczTAwSh.s:2592   .debug_str:0000000000000475 .LASF40
     /tmp/cczTAwSh.s:2520   .debug_str:000000000000027d .LASF41
     /tmp/cczTAwSh.s:2682   .debug_str:000000000000070e .LASF43
     /tmp/cczTAwSh.s:2656   .debug_str:0000000000000676 .LASF45
     /tmp/cczTAwSh.s:2664   .debug_str:00000000000006ac .LASF46
     /tmp/cczTAwSh.s:2452   .debug_str:0000000000000057 .LASF47
     /tmp/cczTAwSh.s:2754   .debug_str:00000000000009b2 .LASF155
     /tmp/cczTAwSh.s:2620   .debug_str:0000000000000558 .LASF156
     /tmp/cczTAwSh.s:2702   .debug_str:0000000000000794 .LASF48
     /tmp/cczTAwSh.s:2606   .debug_str:00000000000004ef .LASF49
     /tmp/cczTAwSh.s:2470   .debug_str:00000000000000d9 .LASF50
     /tmp/cczTAwSh.s:2718   .debug_str:00000000000008a8 .LASF51
     /tmp/cczTAwSh.s:2748   .debug_str:000000000000098a .LASF52
     /tmp/cczTAwSh.s:2474   .debug_str:0000000000000102 .LASF53
     /tmp/cczTAwSh.s:2704   .debug_str:000000000000079f .LASF54
     /tmp/cczTAwSh.s:2488   .debug_str:000000000000016b .LASF55
     /tmp/cczTAwSh.s:2556   .debug_str:0000000000000396 .LASF56
     /tmp/cczTAwSh.s:2678   .debug_str:00000000000006f3 .LASF66
     /tmp/cczTAwSh.s:2694   .debug_str:000000000000076a .LASF57
     /tmp/cczTAwSh.s:2744   .debug_str:0000000000000959 .LASF58
     /tmp/cczTAwSh.s:2708   .debug_str:00000000000007af .LASF82
     /tmp/cczTAwSh.s:2730   .debug_str:0000000000000902 .LASF59
     /tmp/cczTAwSh.s:2722   .debug_str:00000000000008c8 .LASF60
     /tmp/cczTAwSh.s:2576   .debug_str:0000000000000430 .LASF61
     /tmp/cczTAwSh.s:2712   .debug_str:000000000000087b .LASF63
     /tmp/cczTAwSh.s:2496   .debug_str:00000000000001b1 .LASF62
     /tmp/cczTAwSh.s:2486   .debug_str:0000000000000158 .LASF64
     /tmp/cczTAwSh.s:2680   .debug_str:0000000000000709 .LASF65
     /tmp/cczTAwSh.s:2562   .debug_str:00000000000003bd .LASF67
     /tmp/cczTAwSh.s:2444   .debug_str:0000000000000000 .LASF68
     /tmp/cczTAwSh.s:2586   .debug_str:0000000000000459 .LASF69
     /tmp/cczTAwSh.s:2714   .debug_str:000000000000088b .LASF70
     /tmp/cczTAwSh.s:2698   .debug_str:0000000000000783 .LASF71
     /tmp/cczTAwSh.s:2614   .debug_str:000000000000051a .LASF72
     /tmp/cczTAwSh.s:2492   .debug_str:0000000000000191 .LASF157
     /tmp/cczTAwSh.s:2450   .debug_str:000000000000002f .LASF158
     /tmp/cczTAwSh.s:2676   .debug_str:00000000000006e7 .LASF74
     /tmp/cczTAwSh.s:2572   .debug_str:0000000000000418 .LASF75
     /tmp/cczTAwSh.s:2480   .debug_str:0000000000000136 .LASF76
     /tmp/cczTAwSh.s:2464   .debug_str:00000000000000c4 .LASF77
     /tmp/cczTAwSh.s:2546   .debug_str:000000000000034d .LASF78
     /tmp/cczTAwSh.s:2646   .debug_str:0000000000000638 .LASF79
     /tmp/cczTAwSh.s:2624   .debug_str:000000000000058b .LASF80
     /tmp/cczTAwSh.s:2462   .debug_str:00000000000000ab .LASF81
GAS LISTING /tmp/cczTAwSh.s 			page 11


     /tmp/cczTAwSh.s:2632   .debug_str:00000000000005cf .LASF83
     /tmp/cczTAwSh.s:2590   .debug_str:000000000000046b .LASF84
     /tmp/cczTAwSh.s:2466   .debug_str:00000000000000c9 .LASF85
     /tmp/cczTAwSh.s:2760   .debug_str:00000000000009f7 .LASF86
     /tmp/cczTAwSh.s:2600   .debug_str:00000000000004bf .LASF87
     /tmp/cczTAwSh.s:2458   .debug_str:0000000000000075 .LASF88
     /tmp/cczTAwSh.s:2542   .debug_str:000000000000032c .LASF89
     /tmp/cczTAwSh.s:2602   .debug_str:00000000000004c9 .LASF90
     /tmp/cczTAwSh.s:2558   .debug_str:00000000000003a1 .LASF91
     /tmp/cczTAwSh.s:2622   .debug_str:000000000000055d .LASF92
     /tmp/cczTAwSh.s:2594   .debug_str:0000000000000485 .LASF159
     /tmp/cczTAwSh.s:2740   .debug_str:0000000000000949 .LASF93
     /tmp/cczTAwSh.s:2630   .debug_str:00000000000005ba .LASF94
     /tmp/cczTAwSh.s:2506   .debug_str:000000000000020a .LASF95
     /tmp/cczTAwSh.s:2746   .debug_str:000000000000097b .LASF96
     /tmp/cczTAwSh.s:2530   .debug_str:00000000000002bb .LASF97
     /tmp/cczTAwSh.s:2534   .debug_str:00000000000002e5 .LASF98
     /tmp/cczTAwSh.s:2544   .debug_str:0000000000000335 .LASF99
     /tmp/cczTAwSh.s:2720   .debug_str:00000000000008bf .LASF100
     /tmp/cczTAwSh.s:2716   .debug_str:0000000000000893 .LASF101
     /tmp/cczTAwSh.s:2650   .debug_str:0000000000000654 .LASF102
     /tmp/cczTAwSh.s:2616   .debug_str:0000000000000522 .LASF103
     /tmp/cczTAwSh.s:2634   .debug_str:00000000000005d8 .LASF104
     /tmp/cczTAwSh.s:2638   .debug_str:00000000000005f8 .LASF105
     /tmp/cczTAwSh.s:2612   .debug_str:0000000000000513 .LASF106
     /tmp/cczTAwSh.s:2568   .debug_str:00000000000003fc .LASF107
     /tmp/cczTAwSh.s:2750   .debug_str:0000000000000994 .LASF108
     /tmp/cczTAwSh.s:2692   .debug_str:0000000000000756 .LASF109
     /tmp/cczTAwSh.s:2608   .debug_str:0000000000000506 .LASF110
     /tmp/cczTAwSh.s:2514   .debug_str:000000000000025f .LASF111
     /tmp/cczTAwSh.s:2578   .debug_str:0000000000000436 .LASF112
     /tmp/cczTAwSh.s:2640   .debug_str:000000000000060b .LASF113
     /tmp/cczTAwSh.s:2764   .debug_str:0000000000000a20 .LASF114
     /tmp/cczTAwSh.s:2728   .debug_str:00000000000008ee .LASF115
     /tmp/cczTAwSh.s:2690   .debug_str:000000000000074f .LASF116
     /tmp/cczTAwSh.s:2666   .debug_str:00000000000006b1 .LASF117
     /tmp/cczTAwSh.s:2668   .debug_str:00000000000006c4 .LASF118
     /tmp/cczTAwSh.s:2484   .debug_str:0000000000000145 .LASF119
     /tmp/cczTAwSh.s:2500   .debug_str:00000000000001d2 .LASF120
     /tmp/cczTAwSh.s:2540   .debug_str:000000000000031a .LASF121
     /tmp/cczTAwSh.s:2554   .debug_str:0000000000000390 .LASF122
     /tmp/cczTAwSh.s:2494   .debug_str:000000000000019f .LASF123
     /tmp/cczTAwSh.s:2456   .debug_str:000000000000006a .LASF124
     /tmp/cczTAwSh.s:2660   .debug_str:000000000000068d .LASF125
     /tmp/cczTAwSh.s:2652   .debug_str:000000000000065d .LASF126
     /tmp/cczTAwSh.s:2498   .debug_str:00000000000001ba .LASF127
     /tmp/cczTAwSh.s:2742   .debug_str:000000000000094f .LASF128
     /tmp/cczTAwSh.s:2752   .debug_str:000000000000099c .LASF129
     /tmp/cczTAwSh.s:2482   .debug_str:000000000000013b .LASF130
     /tmp/cczTAwSh.s:2598   .debug_str:00000000000004a9 .LASF160
     /tmp/cczTAwSh.s:2706   .debug_str:00000000000007aa .LASF131
     /tmp/cczTAwSh.s:2518   .debug_str:0000000000000278 .LASF132
     /tmp/cczTAwSh.s:42     .text:0000000000000028 .LFB45
     /tmp/cczTAwSh.s:158    .text:00000000000000d4 .LFE45
     /tmp/cczTAwSh.s:2468   .debug_str:00000000000000ce .LASF133
     /tmp/cczTAwSh.s:2391   .debug_loc:0000000000000000 .LLST0
     /tmp/cczTAwSh.s:2732   .debug_str:000000000000090a .LASF134
GAS LISTING /tmp/cczTAwSh.s 			page 12


     /tmp/cczTAwSh.s:61     .text:0000000000000048 .LBB13
     /tmp/cczTAwSh.s:73     .text:000000000000004c .LBE13
     /tmp/cczTAwSh.s:75     .text:000000000000004c .LBB15
     /tmp/cczTAwSh.s:84     .text:0000000000000058 .LBE15
     /tmp/cczTAwSh.s:2398   .debug_loc:0000000000000023 .LLST1
     /tmp/cczTAwSh.s:82     .text:0000000000000058 .LVL4
     /tmp/cczTAwSh.s:85     .text:0000000000000058 .LBB17
     /tmp/cczTAwSh.s:108    .text:0000000000000080 .LBE17
     /tmp/cczTAwSh.s:2407   .debug_loc:0000000000000048 .LLST2
     /tmp/cczTAwSh.s:2415   .debug_loc:000000000000006c .LLST5
     /tmp/cczTAwSh.s:130    .text:00000000000000ac .LBB19
     /tmp/cczTAwSh.s:137    .text:00000000000000b0 .LBE19
     /tmp/cczTAwSh.s:2422   .debug_loc:000000000000008f .LLST6
     /tmp/cczTAwSh.s:56     .text:0000000000000040 .LVL1
     /tmp/cczTAwSh.s:123    .text:00000000000000a8 .LVL7
     /tmp/cczTAwSh.s:143    .text:00000000000000bc .LVL10
     /tmp/cczTAwSh.s:2526   .debug_str:00000000000002a3 .LASF135
     /tmp/cczTAwSh.s:2536   .debug_str:00000000000002f0 .LASF136
     /tmp/cczTAwSh.s:10     .text:0000000000000000 .LFB44
     /tmp/cczTAwSh.s:36     .text:0000000000000028 .LFE44
     /tmp/cczTAwSh.s:25     .text:0000000000000018 .LVL0
     /tmp/cczTAwSh.s:2516   .debug_str:0000000000000273 .LASF137
     /tmp/cczTAwSh.s:2588   .debug_str:000000000000045f .LASF138
     /tmp/cczTAwSh.s:2596   .debug_str:0000000000000493 .LASF161
     /tmp/cczTAwSh.s:2580   .debug_str:000000000000043e .LASF139
     /tmp/cczTAwSh.s:2618   .debug_str:0000000000000537 .LASF140
     /tmp/cczTAwSh.s:2726   .debug_str:00000000000008e0 .LASF142
     /tmp/cczTAwSh.s:2460   .debug_str:0000000000000096 .LASF141
     /tmp/cczTAwSh.s:2644   .debug_str:0000000000000628 .LASF143
     /tmp/cczTAwSh.s:2548   .debug_str:0000000000000354 .LASF144
     /tmp/cczTAwSh.s:2674   .debug_str:00000000000006de .LASF145
     /tmp/cczTAwSh.s:106    .text:0000000000000080 .LVL5
     /tmp/cczTAwSh.s:121    .text:00000000000000a0 .LVL6
     /tmp/cczTAwSh.s:70     .text:000000000000004c .LVL3
     /tmp/cczTAwSh.s:129    .text:00000000000000ac .LVL8
     /tmp/cczTAwSh.s:135    .text:00000000000000b0 .LVL9
     /tmp/cczTAwSh.s:167    .debug_info:0000000000000000 .Ldebug_info0

UNDEFINED SYMBOLS
_Z8userMainv
_ZN15MemoryAllocator4initEv
_ZN5Riscv14supervisorTrapEv
_ZN15MemoryAllocator9mem_allocEm
_ZN3TCB7wrapperEPv
_ZN3TCB7runningE
_Z13thread_createPP3TCBPFvPvES2_
_Z15thread_dispatchv
