GAS LISTING /tmp/ccEXyffT.s 			page 1


   1              		.file	"MemoryAllocator.cpp"
   2              		.option pic
   3              		.option norelax
   4              		.text
   5              	.Ltext0:
   6              		.align	2
   7              		.globl	_ZN15MemoryAllocator4initEv
   9              	_ZN15MemoryAllocator4initEv:
  10              	.LFB3:
  11              		.file 1 "src/MemoryAllocator.cpp"
   1:src/MemoryAllocator.cpp **** #include "../h/MemoryAllocator.hpp"
   2:src/MemoryAllocator.cpp **** 
   3:src/MemoryAllocator.cpp **** BlockHeader* MemoryAllocator::freeHead = nullptr;
   4:src/MemoryAllocator.cpp **** BlockHeader* MemoryAllocator::allocHead = nullptr;
   5:src/MemoryAllocator.cpp **** 
   6:src/MemoryAllocator.cpp **** void MemoryAllocator::init() {
  12              		.loc 1 6 30
  13              		.cfi_startproc
  14 0000 130101FF 		addi	sp,sp,-16
  15              		.cfi_def_cfa_offset 16
  16 0004 23348100 		sd	s0,8(sp)
  17              		.cfi_offset 8, -8
  18 0008 13040101 		addi	s0,sp,16
  19              		.cfi_def_cfa 8, 0
   7:src/MemoryAllocator.cpp ****     uint64 start = ((uint64)HEAP_START_ADDR + MEM_BLOCK_SIZE - 1) & ~(MEM_BLOCK_SIZE - 1); //poravn
  20              		.loc 1 7 5
  21              		.loc 1 7 62 is_stmt 0
  22 000c 97070000 		la	a5,HEAP_START_ADDR
  22      83B70700 
  23 0014 83B70700 		ld	a5,0(a5)
  24 0018 9387F703 		addi	a5,a5,63
  25              		.loc 1 7 12
  26 001c 93F707FC 		andi	a5,a5,-64
  27              	.LVL0:
   8:src/MemoryAllocator.cpp ****     freeHead = (BlockHeader*)start;
  28              		.loc 1 8 5 is_stmt 1
  29              		.loc 1 8 14 is_stmt 0
  30 0020 97060000 		lla	a3,.LANCHOR0
  30      93860600 
  31 0028 23B0F600 		sd	a5,0(a3)
   9:src/MemoryAllocator.cpp ****     freeHead->size = ((uint64)HEAP_END_ADDR - start) / MEM_BLOCK_SIZE - HEADER_BLOCKS; //u blokovim
  32              		.loc 1 9 5 is_stmt 1
  33              		.loc 1 9 45 is_stmt 0
  34 002c 17070000 		la	a4,HEAP_END_ADDR
  34      03370700 
  35 0034 03370700 		ld	a4,0(a4)
  36 0038 3307F740 		sub	a4,a4,a5
  37              		.loc 1 9 54
  38 003c 13576700 		srli	a4,a4,6
  39              		.loc 1 9 71
  40 0040 1307F7FF 		addi	a4,a4,-1
  41              		.loc 1 9 20
  42 0044 23B0E700 		sd	a4,0(a5)
  10:src/MemoryAllocator.cpp ****     freeHead->next = nullptr;
  43              		.loc 1 10 5 is_stmt 1
  44              		.loc 1 10 15 is_stmt 0
  45 0048 83B70600 		ld	a5,0(a3)
GAS LISTING /tmp/ccEXyffT.s 			page 2


  46              	.LVL1:
  47              		.loc 1 10 20
  48 004c 23B40700 		sd	zero,8(a5)
  11:src/MemoryAllocator.cpp ****     freeHead->prev = nullptr;
  49              		.loc 1 11 5 is_stmt 1
  50              		.loc 1 11 20 is_stmt 0
  51 0050 23B80700 		sd	zero,16(a5)
  12:src/MemoryAllocator.cpp ****     freeHead->isFree = true;
  52              		.loc 1 12 5 is_stmt 1
  53              		.loc 1 12 22 is_stmt 0
  54 0054 13071000 		li	a4,1
  55 0058 238CE700 		sb	a4,24(a5)
  13:src/MemoryAllocator.cpp **** }
  56              		.loc 1 13 1
  57 005c 03348100 		ld	s0,8(sp)
  58              		.cfi_restore 8
  59              		.cfi_def_cfa 2, 16
  60 0060 13010101 		addi	sp,sp,16
  61              		.cfi_def_cfa_offset 0
  62 0064 67800000 		jr	ra
  63              		.cfi_endproc
  64              	.LFE3:
  66              		.align	2
  67              		.globl	_ZN15MemoryAllocator9mem_allocEm
  69              	_ZN15MemoryAllocator9mem_allocEm:
  70              	.LFB4:
  14:src/MemoryAllocator.cpp **** 
  15:src/MemoryAllocator.cpp **** void* MemoryAllocator::mem_alloc(size_t size) {
  71              		.loc 1 15 47 is_stmt 1
  72              		.cfi_startproc
  73              	.LVL2:
  74 0068 130101FF 		addi	sp,sp,-16
  75              		.cfi_def_cfa_offset 16
  76 006c 23348100 		sd	s0,8(sp)
  77              		.cfi_offset 8, -8
  78 0070 13040101 		addi	s0,sp,16
  79              		.cfi_def_cfa 8, 0
  16:src/MemoryAllocator.cpp ****     if(!size || !freeHead) return nullptr;
  80              		.loc 1 16 5
  81 0074 63060514 		beqz	a0,.L21
  82 0078 13070500 		mv	a4,a0
  83              		.loc 1 16 17 is_stmt 0 discriminator 2
  84 007c 17050000 		ld	a0,.LANCHOR0
  84      03350500 
  85              	.LVL3:
  86              		.loc 1 16 14 discriminator 2
  87 0084 63020510 		beqz	a0,.L3
  17:src/MemoryAllocator.cpp ****     if(size > ((uint64)HEAP_END_ADDR - (uint64)HEAP_START_ADDR)) return nullptr;
  88              		.loc 1 17 5 is_stmt 1
  89              		.loc 1 17 38 is_stmt 0
  90 0088 97070000 		la	a5,HEAP_END_ADDR
  90      83B70700 
  91 0090 83B70700 		ld	a5,0(a5)
  92 0094 97060000 		la	a3,HEAP_START_ADDR
  92      83B60600 
  93 009c 83B60600 		ld	a3,0(a3)
  94 00a0 B387D740 		sub	a5,a5,a3
GAS LISTING /tmp/ccEXyffT.s 			page 3


  95              		.loc 1 17 5
  96 00a4 63E2E712 		bltu	a5,a4,.L22
  18:src/MemoryAllocator.cpp **** 
  19:src/MemoryAllocator.cpp ****     size_t totalBlocks = size + HEADER_BLOCKS;
  97              		.loc 1 19 5 is_stmt 1
  98              		.loc 1 19 12 is_stmt 0
  99 00a8 93061700 		addi	a3,a4,1
 100              	.LVL4:
  20:src/MemoryAllocator.cpp ****     BlockHeader* curr = freeHead;
 101              		.loc 1 20 5 is_stmt 1
  21:src/MemoryAllocator.cpp ****     BlockHeader* allocatedBlock = nullptr; //blok koji alociram
 102              		.loc 1 21 5
 103 00ac 6F008004 		j	.L14
 104              	.LVL5:
 105              	.L24:
 106              	.LBB2:
 107              	.LBB3:
 108              	.LBB4:
 109              	.LBB5:
  22:src/MemoryAllocator.cpp **** 
  23:src/MemoryAllocator.cpp ****     while(curr) {
  24:src/MemoryAllocator.cpp ****         if(curr->isFree && curr->size >= totalBlocks) {
  25:src/MemoryAllocator.cpp ****             allocatedBlock = curr;
  26:src/MemoryAllocator.cpp **** 
  27:src/MemoryAllocator.cpp ****             if(curr->size == totalBlocks) { //tacno odgovara
  28:src/MemoryAllocator.cpp ****                 //izbacivanje iz slobodnih
  29:src/MemoryAllocator.cpp ****                 if(curr->prev) curr->prev->next = curr->next;
 110              		.loc 1 29 17
 111              		.loc 1 29 26 is_stmt 0
 112 00b0 83370501 		ld	a5,16(a0)
 113              		.loc 1 29 17
 114 00b4 63800702 		beqz	a5,.L8
 115              		.loc 1 29 32 is_stmt 1 discriminator 1
 116              		.loc 1 29 57 is_stmt 0 discriminator 1
 117 00b8 03378500 		ld	a4,8(a0)
 118              	.LVL6:
 119              		.loc 1 29 49 discriminator 1
 120 00bc 23B4E700 		sd	a4,8(a5)
 121              	.L9:
  30:src/MemoryAllocator.cpp ****                 else freeHead = curr->next;
  31:src/MemoryAllocator.cpp ****                 if(curr->next) curr->next->prev = curr->prev;
 122              		.loc 1 31 17 is_stmt 1
 123              		.loc 1 31 26 is_stmt 0
 124 00c0 83378500 		ld	a5,8(a0)
 125              		.loc 1 31 17
 126 00c4 63840708 		beqz	a5,.L10
 127              		.loc 1 31 32 is_stmt 1 discriminator 1
 128              		.loc 1 31 57 is_stmt 0 discriminator 1
 129 00c8 03370501 		ld	a4,16(a0)
 130              		.loc 1 31 49 discriminator 1
 131 00cc 23B8E700 		sd	a4,16(a5)
 132 00d0 6F00C007 		j	.L10
 133              	.LVL7:
 134              	.L8:
  30:src/MemoryAllocator.cpp ****                 else freeHead = curr->next;
 135              		.loc 1 30 22 is_stmt 1
  30:src/MemoryAllocator.cpp ****                 else freeHead = curr->next;
GAS LISTING /tmp/ccEXyffT.s 			page 4


 136              		.loc 1 30 39 is_stmt 0
 137 00d4 83378500 		ld	a5,8(a0)
  30:src/MemoryAllocator.cpp ****                 else freeHead = curr->next;
 138              		.loc 1 30 31
 139 00d8 17070000 		sd	a5,.LANCHOR0,a4
 139      2330F700 
 140              	.LVL8:
 141 00e0 6FF01FFE 		j	.L9
 142              	.LVL9:
 143              	.L11:
 144              	.LBB6:
  32:src/MemoryAllocator.cpp ****             }
  33:src/MemoryAllocator.cpp ****             else {
  34:src/MemoryAllocator.cpp ****                 //deljenje bloka
  35:src/MemoryAllocator.cpp ****                 BlockHeader* free = (BlockHeader*)((char*)curr + totalBlocks * MEM_BLOCK_SIZE);
  36:src/MemoryAllocator.cpp ****                 free->size = curr->size - totalBlocks;
  37:src/MemoryAllocator.cpp ****                 free->isFree = true;
  38:src/MemoryAllocator.cpp **** 
  39:src/MemoryAllocator.cpp ****                 free->next = curr->next;
  40:src/MemoryAllocator.cpp ****                 free->prev = curr->prev;
  41:src/MemoryAllocator.cpp ****                 if(curr->prev) curr->prev->next = free;
  42:src/MemoryAllocator.cpp ****                 else freeHead = free;
 145              		.loc 1 42 22 is_stmt 1
 146              		.loc 1 42 31 is_stmt 0
 147 00e4 97070000 		sd	a2,.LANCHOR0,a5
 147      23B0C700 
 148 00ec 6F000005 		j	.L12
 149              	.LVL10:
 150              	.L6:
 151              	.LBE6:
 152              	.LBE5:
 153              	.LBE4:
 154              	.LBE3:
  43:src/MemoryAllocator.cpp ****                 if(curr->next) curr->next->prev = free;
  44:src/MemoryAllocator.cpp **** 
  45:src/MemoryAllocator.cpp ****                 allocatedBlock->size = size;
  46:src/MemoryAllocator.cpp ****             }
  47:src/MemoryAllocator.cpp **** 
  48:src/MemoryAllocator.cpp ****             allocatedBlock->isFree = false;
  49:src/MemoryAllocator.cpp ****             allocatedBlock->next = nullptr;
  50:src/MemoryAllocator.cpp ****             allocatedBlock->prev = nullptr;
  51:src/MemoryAllocator.cpp ****             break;
  52:src/MemoryAllocator.cpp ****         }
  53:src/MemoryAllocator.cpp ****         curr = curr->next;
 155              		.loc 1 53 9 is_stmt 1
 156              		.loc 1 53 14 is_stmt 0
 157 00f0 03358500 		ld	a0,8(a0)
 158              	.LVL11:
 159              	.L14:
 160              	.LBE2:
  23:src/MemoryAllocator.cpp ****         if(curr->isFree && curr->size >= totalBlocks) {
 161              		.loc 1 23 5 is_stmt 1
  23:src/MemoryAllocator.cpp ****         if(curr->isFree && curr->size >= totalBlocks) {
 162              		.loc 1 23 11
 163 00f4 63020506 		beqz	a0,.L5
 164              	.LBB11:
  24:src/MemoryAllocator.cpp ****             allocatedBlock = curr;
GAS LISTING /tmp/ccEXyffT.s 			page 5


 165              		.loc 1 24 9
 166              	.LBB10:
  24:src/MemoryAllocator.cpp ****             allocatedBlock = curr;
 167              		.loc 1 24 18 is_stmt 0
 168 00f8 83478501 		lbu	a5,24(a0)
  24:src/MemoryAllocator.cpp ****             allocatedBlock = curr;
 169              		.loc 1 24 9
 170 00fc E38A07FE 		beqz	a5,.L6
  24:src/MemoryAllocator.cpp ****             allocatedBlock = curr;
 171              		.loc 1 24 34 discriminator 1
 172 0100 83370500 		ld	a5,0(a0)
  24:src/MemoryAllocator.cpp ****             allocatedBlock = curr;
 173              		.loc 1 24 25 discriminator 1
 174 0104 E3E6D7FE 		bltu	a5,a3,.L6
 175              	.LBB9:
  25:src/MemoryAllocator.cpp **** 
 176              		.loc 1 25 13 is_stmt 1
 177              	.LVL12:
  27:src/MemoryAllocator.cpp ****                 //izbacivanje iz slobodnih
 178              		.loc 1 27 13
 179              	.LBB8:
 180 0108 E384D7FA 		beq	a5,a3,.L24
 181              	.LBB7:
  35:src/MemoryAllocator.cpp ****                 free->size = curr->size - totalBlocks;
 182              		.loc 1 35 17
  35:src/MemoryAllocator.cpp ****                 free->size = curr->size - totalBlocks;
 183              		.loc 1 35 78 is_stmt 0
 184 010c 13966600 		slli	a2,a3,6
  35:src/MemoryAllocator.cpp ****                 free->size = curr->size - totalBlocks;
 185              		.loc 1 35 30
 186 0110 3306C500 		add	a2,a0,a2
 187              	.LVL13:
  36:src/MemoryAllocator.cpp ****                 free->isFree = true;
 188              		.loc 1 36 17 is_stmt 1
  36:src/MemoryAllocator.cpp ****                 free->isFree = true;
 189              		.loc 1 36 41 is_stmt 0
 190 0114 B387D740 		sub	a5,a5,a3
  36:src/MemoryAllocator.cpp ****                 free->isFree = true;
 191              		.loc 1 36 28
 192 0118 2330F600 		sd	a5,0(a2)
  37:src/MemoryAllocator.cpp **** 
 193              		.loc 1 37 17 is_stmt 1
  37:src/MemoryAllocator.cpp **** 
 194              		.loc 1 37 30 is_stmt 0
 195 011c 93071000 		li	a5,1
 196 0120 230CF600 		sb	a5,24(a2)
  39:src/MemoryAllocator.cpp ****                 free->prev = curr->prev;
 197              		.loc 1 39 17 is_stmt 1
  39:src/MemoryAllocator.cpp ****                 free->prev = curr->prev;
 198              		.loc 1 39 36 is_stmt 0
 199 0124 83378500 		ld	a5,8(a0)
  39:src/MemoryAllocator.cpp ****                 free->prev = curr->prev;
 200              		.loc 1 39 28
 201 0128 2334F600 		sd	a5,8(a2)
  40:src/MemoryAllocator.cpp ****                 if(curr->prev) curr->prev->next = free;
 202              		.loc 1 40 17 is_stmt 1
  40:src/MemoryAllocator.cpp ****                 if(curr->prev) curr->prev->next = free;
GAS LISTING /tmp/ccEXyffT.s 			page 6


 203              		.loc 1 40 36 is_stmt 0
 204 012c 83370501 		ld	a5,16(a0)
  40:src/MemoryAllocator.cpp ****                 if(curr->prev) curr->prev->next = free;
 205              		.loc 1 40 28
 206 0130 2338F600 		sd	a5,16(a2)
  41:src/MemoryAllocator.cpp ****                 else freeHead = free;
 207              		.loc 1 41 17 is_stmt 1
 208 0134 E38807FA 		beqz	a5,.L11
  41:src/MemoryAllocator.cpp ****                 else freeHead = free;
 209              		.loc 1 41 32 discriminator 1
  41:src/MemoryAllocator.cpp ****                 else freeHead = free;
 210              		.loc 1 41 49 is_stmt 0 discriminator 1
 211 0138 23B4C700 		sd	a2,8(a5)
 212              	.L12:
  43:src/MemoryAllocator.cpp **** 
 213              		.loc 1 43 17 is_stmt 1
  43:src/MemoryAllocator.cpp **** 
 214              		.loc 1 43 26 is_stmt 0
 215 013c 83378500 		ld	a5,8(a0)
  43:src/MemoryAllocator.cpp **** 
 216              		.loc 1 43 17
 217 0140 63840700 		beqz	a5,.L13
  43:src/MemoryAllocator.cpp **** 
 218              		.loc 1 43 32 is_stmt 1 discriminator 1
  43:src/MemoryAllocator.cpp **** 
 219              		.loc 1 43 49 is_stmt 0 discriminator 1
 220 0144 23B8C700 		sd	a2,16(a5)
 221              	.L13:
  45:src/MemoryAllocator.cpp ****             }
 222              		.loc 1 45 17 is_stmt 1
  45:src/MemoryAllocator.cpp ****             }
 223              		.loc 1 45 38 is_stmt 0
 224 0148 2330E500 		sd	a4,0(a0)
 225              	.LVL14:
 226              	.L10:
 227              	.LBE7:
 228              	.LBE8:
  48:src/MemoryAllocator.cpp ****             allocatedBlock->next = nullptr;
 229              		.loc 1 48 13 is_stmt 1
  48:src/MemoryAllocator.cpp ****             allocatedBlock->next = nullptr;
 230              		.loc 1 48 36 is_stmt 0
 231 014c 230C0500 		sb	zero,24(a0)
  49:src/MemoryAllocator.cpp ****             allocatedBlock->prev = nullptr;
 232              		.loc 1 49 13 is_stmt 1
  49:src/MemoryAllocator.cpp ****             allocatedBlock->prev = nullptr;
 233              		.loc 1 49 34 is_stmt 0
 234 0150 23340500 		sd	zero,8(a0)
  50:src/MemoryAllocator.cpp ****             break;
 235              		.loc 1 50 13 is_stmt 1
  50:src/MemoryAllocator.cpp ****             break;
 236              		.loc 1 50 34 is_stmt 0
 237 0154 23380500 		sd	zero,16(a0)
  51:src/MemoryAllocator.cpp ****         }
 238              		.loc 1 51 13 is_stmt 1
 239              	.LVL15:
 240              	.L5:
 241              	.LBE9:
GAS LISTING /tmp/ccEXyffT.s 			page 7


 242              	.LBE10:
 243              	.LBE11:
  54:src/MemoryAllocator.cpp ****     }
  55:src/MemoryAllocator.cpp **** 
  56:src/MemoryAllocator.cpp ****     if(!allocatedBlock) return nullptr; //nismo nasli odg blok
 244              		.loc 1 56 5
 245 0158 63080502 		beqz	a0,.L3
  57:src/MemoryAllocator.cpp **** 
  58:src/MemoryAllocator.cpp ****     //ubacivanje u listu slobodnih, po adr
  59:src/MemoryAllocator.cpp ****     if(!allocHead || allocatedBlock < allocHead) {
 246              		.loc 1 59 5
 247              	.LBB12:
 248              		.loc 1 59 8 is_stmt 0
 249 015c 97070000 		ld	a5,.LANCHOR0+8
 249      83B70700 
 250              		.loc 1 59 5
 251 0164 63840700 		beqz	a5,.L15
 252              		.loc 1 59 19 discriminator 1
 253 0168 6376F502 		bleu	a5,a0,.L16
 254              	.L15:
  60:src/MemoryAllocator.cpp ****         allocatedBlock->next = allocHead;
 255              		.loc 1 60 9 is_stmt 1
 256              		.loc 1 60 30 is_stmt 0
 257 016c 2334F500 		sd	a5,8(a0)
  61:src/MemoryAllocator.cpp ****         allocatedBlock->prev = nullptr;
 258              		.loc 1 61 9 is_stmt 1
 259              		.loc 1 61 30 is_stmt 0
 260 0170 23380500 		sd	zero,16(a0)
  62:src/MemoryAllocator.cpp ****         if(allocHead) allocHead->prev = allocatedBlock;
 261              		.loc 1 62 9 is_stmt 1
 262 0174 63840700 		beqz	a5,.L17
 263              		.loc 1 62 23 discriminator 1
 264              		.loc 1 62 39 is_stmt 0 discriminator 1
 265 0178 23B8A700 		sd	a0,16(a5)
 266              	.L17:
  63:src/MemoryAllocator.cpp ****         allocHead = allocatedBlock;
 267              		.loc 1 63 9 is_stmt 1
 268              		.loc 1 63 19 is_stmt 0
 269 017c 97070000 		sd	a0,.LANCHOR0+8,a5
 269      23B0A700 
 270              	.L18:
 271              	.LBE12:
  64:src/MemoryAllocator.cpp ****     } else {
  65:src/MemoryAllocator.cpp ****         BlockHeader* tmp = allocHead;
  66:src/MemoryAllocator.cpp ****         while(tmp->next && tmp->next < allocatedBlock) tmp = tmp->next;
  67:src/MemoryAllocator.cpp ****         allocatedBlock->next = tmp->next;
  68:src/MemoryAllocator.cpp ****         allocatedBlock->prev = tmp;
  69:src/MemoryAllocator.cpp ****         if(tmp->next) tmp->next->prev = allocatedBlock;
  70:src/MemoryAllocator.cpp ****         tmp->next = allocatedBlock;
  71:src/MemoryAllocator.cpp ****     }
  72:src/MemoryAllocator.cpp **** 
  73:src/MemoryAllocator.cpp ****     return (char*)allocatedBlock + MEM_BLOCK_SIZE;
 272              		.loc 1 73 5 is_stmt 1
 273              		.loc 1 73 36 is_stmt 0
 274 0184 13050504 		addi	a0,a0,64
 275              	.LVL16:
 276              	.L3:
GAS LISTING /tmp/ccEXyffT.s 			page 8


  74:src/MemoryAllocator.cpp **** }
 277              		.loc 1 74 1
 278 0188 03348100 		ld	s0,8(sp)
 279              		.cfi_remember_state
 280              		.cfi_restore 8
 281              		.cfi_def_cfa 2, 16
 282 018c 13010101 		addi	sp,sp,16
 283              		.cfi_def_cfa_offset 0
 284 0190 67800000 		jr	ra
 285              	.LVL17:
 286              	.L16:
 287              		.cfi_restore_state
 288              	.LBB14:
 289              	.LBB13:
  66:src/MemoryAllocator.cpp ****         allocatedBlock->next = tmp->next;
 290              		.loc 1 66 9 is_stmt 1 discriminator 3
  66:src/MemoryAllocator.cpp ****         allocatedBlock->next = tmp->next;
 291              		.loc 1 66 25 discriminator 3
 292 0194 13870700 		mv	a4,a5
  66:src/MemoryAllocator.cpp ****         allocatedBlock->next = tmp->next;
 293              		.loc 1 66 20 is_stmt 0 discriminator 3
 294 0198 83B78700 		ld	a5,8(a5)
 295              	.LVL18:
  66:src/MemoryAllocator.cpp ****         allocatedBlock->next = tmp->next;
 296              		.loc 1 66 25 discriminator 3
 297 019c 63840700 		beqz	a5,.L19
  66:src/MemoryAllocator.cpp ****         allocatedBlock->next = tmp->next;
 298              		.loc 1 66 25 discriminator 1
 299 01a0 E3EAA7FE 		bltu	a5,a0,.L16
 300              	.L19:
  67:src/MemoryAllocator.cpp ****         allocatedBlock->prev = tmp;
 301              		.loc 1 67 9 is_stmt 1
  67:src/MemoryAllocator.cpp ****         allocatedBlock->prev = tmp;
 302              		.loc 1 67 30 is_stmt 0
 303 01a4 2334F500 		sd	a5,8(a0)
  68:src/MemoryAllocator.cpp ****         if(tmp->next) tmp->next->prev = allocatedBlock;
 304              		.loc 1 68 9 is_stmt 1
  68:src/MemoryAllocator.cpp ****         if(tmp->next) tmp->next->prev = allocatedBlock;
 305              		.loc 1 68 30 is_stmt 0
 306 01a8 2338E500 		sd	a4,16(a0)
  69:src/MemoryAllocator.cpp ****         tmp->next = allocatedBlock;
 307              		.loc 1 69 9 is_stmt 1
  69:src/MemoryAllocator.cpp ****         tmp->next = allocatedBlock;
 308              		.loc 1 69 17 is_stmt 0
 309 01ac 83378700 		ld	a5,8(a4)
  69:src/MemoryAllocator.cpp ****         tmp->next = allocatedBlock;
 310              		.loc 1 69 9
 311 01b0 63840700 		beqz	a5,.L20
  69:src/MemoryAllocator.cpp ****         tmp->next = allocatedBlock;
 312              		.loc 1 69 23 is_stmt 1 discriminator 1
  69:src/MemoryAllocator.cpp ****         tmp->next = allocatedBlock;
 313              		.loc 1 69 39 is_stmt 0 discriminator 1
 314 01b4 23B8A700 		sd	a0,16(a5)
 315              	.L20:
  70:src/MemoryAllocator.cpp ****     }
 316              		.loc 1 70 9 is_stmt 1
  70:src/MemoryAllocator.cpp ****     }
GAS LISTING /tmp/ccEXyffT.s 			page 9


 317              		.loc 1 70 19 is_stmt 0
 318 01b8 2334A700 		sd	a0,8(a4)
 319 01bc 6FF09FFC 		j	.L18
 320              	.LVL19:
 321              	.L21:
 322              	.LBE13:
 323              	.LBE14:
  16:src/MemoryAllocator.cpp ****     if(size > ((uint64)HEAP_END_ADDR - (uint64)HEAP_START_ADDR)) return nullptr;
 324              		.loc 1 16 35
 325 01c0 13050000 		li	a0,0
 326              	.LVL20:
 327 01c4 6FF05FFC 		j	.L3
 328              	.LVL21:
 329              	.L22:
  17:src/MemoryAllocator.cpp **** 
 330              		.loc 1 17 73
 331 01c8 13050000 		li	a0,0
 332 01cc 6FF0DFFB 		j	.L3
 333              		.cfi_endproc
 334              	.LFE4:
 336              		.align	2
 337              		.globl	_ZN15MemoryAllocator9tryToJoinEP11BlockHeader
 339              	_ZN15MemoryAllocator9tryToJoinEP11BlockHeader:
 340              	.LFB6:
  75:src/MemoryAllocator.cpp **** 
  76:src/MemoryAllocator.cpp **** int MemoryAllocator::mem_free(void* addr) {
  77:src/MemoryAllocator.cpp ****     if(!addr) return -1;
  78:src/MemoryAllocator.cpp ****     if(addr < HEAP_START_ADDR || addr >= HEAP_END_ADDR) return -2;
  79:src/MemoryAllocator.cpp **** 
  80:src/MemoryAllocator.cpp ****     BlockHeader* block = (BlockHeader*)((char*)addr - MEM_BLOCK_SIZE);
  81:src/MemoryAllocator.cpp ****     if (block < allocHead) return -3;
  82:src/MemoryAllocator.cpp **** 
  83:src/MemoryAllocator.cpp ****     bool isAllocated = false;
  84:src/MemoryAllocator.cpp ****     BlockHeader* tmp = allocHead;
  85:src/MemoryAllocator.cpp ****     while(tmp) {
  86:src/MemoryAllocator.cpp ****         if(tmp == block && !block->isFree) {  //proveram jel blok sa datom addr bio alociran
  87:src/MemoryAllocator.cpp ****             isAllocated = true;
  88:src/MemoryAllocator.cpp ****             break;
  89:src/MemoryAllocator.cpp ****         }
  90:src/MemoryAllocator.cpp ****         tmp = tmp->next;
  91:src/MemoryAllocator.cpp ****     }
  92:src/MemoryAllocator.cpp ****     if(!isAllocated) return -3;
  93:src/MemoryAllocator.cpp **** 
  94:src/MemoryAllocator.cpp ****     if(block->prev) block->prev->next = block->next;
  95:src/MemoryAllocator.cpp ****     else allocHead = block->next;
  96:src/MemoryAllocator.cpp ****     if(block->next) block->next->prev = block->prev;
  97:src/MemoryAllocator.cpp **** 
  98:src/MemoryAllocator.cpp ****     block->isFree = true;
  99:src/MemoryAllocator.cpp **** 
 100:src/MemoryAllocator.cpp ****     if(!freeHead || block < freeHead) { //ubacujem u listu slobodnih po adr
 101:src/MemoryAllocator.cpp ****         block->next = freeHead;
 102:src/MemoryAllocator.cpp ****         block->prev = nullptr;
 103:src/MemoryAllocator.cpp ****         if(freeHead) freeHead->prev = block;
 104:src/MemoryAllocator.cpp ****         freeHead = block;
 105:src/MemoryAllocator.cpp ****     } else {
 106:src/MemoryAllocator.cpp ****         BlockHeader* curr = freeHead;
 107:src/MemoryAllocator.cpp ****         while(curr->next && curr->next < block) curr = curr->next;
GAS LISTING /tmp/ccEXyffT.s 			page 10


 108:src/MemoryAllocator.cpp ****         block->next = curr->next;
 109:src/MemoryAllocator.cpp ****         block->prev = curr;
 110:src/MemoryAllocator.cpp ****         if(curr->next) curr->next->prev = block;
 111:src/MemoryAllocator.cpp ****         curr->next = block;
 112:src/MemoryAllocator.cpp ****     }
 113:src/MemoryAllocator.cpp **** 
 114:src/MemoryAllocator.cpp ****     tryToJoin(block); //pokusavam spajanje
 115:src/MemoryAllocator.cpp ****     if(block->prev) tryToJoin(block->prev);
 116:src/MemoryAllocator.cpp **** 
 117:src/MemoryAllocator.cpp ****     return 0;
 118:src/MemoryAllocator.cpp **** }
 119:src/MemoryAllocator.cpp **** 
 120:src/MemoryAllocator.cpp **** void MemoryAllocator::tryToJoin(BlockHeader* block) {
 341              		.loc 1 120 53 is_stmt 1
 342              		.cfi_startproc
 343              	.LVL22:
 344 01d0 130101FF 		addi	sp,sp,-16
 345              		.cfi_def_cfa_offset 16
 346 01d4 23348100 		sd	s0,8(sp)
 347              		.cfi_offset 8, -8
 348 01d8 13040101 		addi	s0,sp,16
 349              		.cfi_def_cfa 8, 0
 121:src/MemoryAllocator.cpp ****     if(!block || !block->isFree) return;
 350              		.loc 1 121 5
 351 01dc 630A0504 		beqz	a0,.L25
 352              		.loc 1 121 26 is_stmt 0 discriminator 2
 353 01e0 83478501 		lbu	a5,24(a0)
 354              		.loc 1 121 15 discriminator 2
 355 01e4 63860704 		beqz	a5,.L25
 122:src/MemoryAllocator.cpp **** 
 123:src/MemoryAllocator.cpp ****     if(block->next && block->next->isFree && (char*)block + (block->size + HEADER_BLOCKS) * MEM_BLO
 356              		.loc 1 123 5 is_stmt 1
 357              		.loc 1 123 15 is_stmt 0
 358 01e8 83378500 		ld	a5,8(a0)
 359              		.loc 1 123 5
 360 01ec 63800702 		beqz	a5,.L27
 361              		.loc 1 123 36 discriminator 1
 362 01f0 03C78701 		lbu	a4,24(a5)
 363              		.loc 1 123 20 discriminator 1
 364 01f4 630C0700 		beqz	a4,.L27
 365              		.loc 1 123 69 discriminator 2
 366 01f8 83360500 		ld	a3,0(a0)
 367              		.loc 1 123 74 discriminator 2
 368 01fc 13871600 		addi	a4,a3,1
 369              		.loc 1 123 91 discriminator 2
 370 0200 13176700 		slli	a4,a4,6
 371              		.loc 1 123 59 discriminator 2
 372 0204 3307E500 		add	a4,a0,a4
 373              		.loc 1 123 43 discriminator 2
 374 0208 638AE702 		beq	a5,a4,.L29
 375              	.L27:
 124:src/MemoryAllocator.cpp ****         block->size += block->next->size + HEADER_BLOCKS;
 125:src/MemoryAllocator.cpp ****         block->next = block->next->next;
 126:src/MemoryAllocator.cpp ****         if(block->next) block->next->prev = block;
 127:src/MemoryAllocator.cpp ****     }
 128:src/MemoryAllocator.cpp **** 
 129:src/MemoryAllocator.cpp ****     if(block->prev && block->prev->isFree && (char*)block->prev + (block->prev->size + HEADER_BLOCK
GAS LISTING /tmp/ccEXyffT.s 			page 11


 376              		.loc 1 129 5 is_stmt 1
 377              		.loc 1 129 15 is_stmt 0
 378 020c 83370501 		ld	a5,16(a0)
 379              		.loc 1 129 5
 380 0210 63800702 		beqz	a5,.L25
 381              		.loc 1 129 36 discriminator 1
 382 0214 03C78701 		lbu	a4,24(a5)
 383              		.loc 1 129 20 discriminator 1
 384 0218 630C0700 		beqz	a4,.L25
 385              		.loc 1 129 81 discriminator 2
 386 021c 83B60700 		ld	a3,0(a5)
 387              		.loc 1 129 86 discriminator 2
 388 0220 13871600 		addi	a4,a3,1
 389              		.loc 1 129 103 discriminator 2
 390 0224 13176700 		slli	a4,a4,6
 391              		.loc 1 129 65 discriminator 2
 392 0228 3387E700 		add	a4,a5,a4
 393              		.loc 1 129 43 discriminator 2
 394 022c 630AA702 		beq	a4,a0,.L30
 395              	.L25:
 130:src/MemoryAllocator.cpp ****         block->prev->size += block->size + HEADER_BLOCKS;
 131:src/MemoryAllocator.cpp ****         block->prev->next = block->next;
 132:src/MemoryAllocator.cpp ****         if(block->next) block->next->prev = block->prev;
 133:src/MemoryAllocator.cpp ****     }
 134:src/MemoryAllocator.cpp **** }...
 396              		.loc 1 134 1
 397 0230 03348100 		ld	s0,8(sp)
 398              		.cfi_remember_state
 399              		.cfi_restore 8
 400              		.cfi_def_cfa 2, 16
 401 0234 13010101 		addi	sp,sp,16
 402              		.cfi_def_cfa_offset 0
 403 0238 67800000 		jr	ra
 404              	.L29:
 405              		.cfi_restore_state
 124:src/MemoryAllocator.cpp ****         block->size += block->next->size + HEADER_BLOCKS;
 406              		.loc 1 124 9 is_stmt 1
 124:src/MemoryAllocator.cpp ****         block->size += block->next->size + HEADER_BLOCKS;
 407              		.loc 1 124 37 is_stmt 0
 408 023c 03B70700 		ld	a4,0(a5)
 124:src/MemoryAllocator.cpp ****         block->size += block->next->size + HEADER_BLOCKS;
 409              		.loc 1 124 21
 410 0240 B386E600 		add	a3,a3,a4
 411 0244 93861600 		addi	a3,a3,1
 412 0248 2330D500 		sd	a3,0(a0)
 125:src/MemoryAllocator.cpp ****         block->next = block->next->next;
 413              		.loc 1 125 9 is_stmt 1
 125:src/MemoryAllocator.cpp ****         block->next = block->next->next;
 414              		.loc 1 125 36 is_stmt 0
 415 024c 83B78700 		ld	a5,8(a5)
 125:src/MemoryAllocator.cpp ****         block->next = block->next->next;
 416              		.loc 1 125 21
 417 0250 2334F500 		sd	a5,8(a0)
 126:src/MemoryAllocator.cpp ****         if(block->next) block->next->prev = block;
 418              		.loc 1 126 9 is_stmt 1
 419 0254 E38C07FA 		beqz	a5,.L27
 126:src/MemoryAllocator.cpp ****         if(block->next) block->next->prev = block;
GAS LISTING /tmp/ccEXyffT.s 			page 12


 420              		.loc 1 126 25 discriminator 1
 126:src/MemoryAllocator.cpp ****         if(block->next) block->next->prev = block;
 421              		.loc 1 126 43 is_stmt 0 discriminator 1
 422 0258 23B8A700 		sd	a0,16(a5)
 423 025c 6FF01FFB 		j	.L27
 424              	.L30:
 130:src/MemoryAllocator.cpp ****         block->prev->size += block->size + HEADER_BLOCKS;
 425              		.loc 1 130 9 is_stmt 1
 130:src/MemoryAllocator.cpp ****         block->prev->size += block->size + HEADER_BLOCKS;
 426              		.loc 1 130 37 is_stmt 0
 427 0260 03370500 		ld	a4,0(a0)
 130:src/MemoryAllocator.cpp ****         block->prev->size += block->size + HEADER_BLOCKS;
 428              		.loc 1 130 27
 429 0264 B386E600 		add	a3,a3,a4
 430 0268 93861600 		addi	a3,a3,1
 431 026c 23B0D700 		sd	a3,0(a5)
 131:src/MemoryAllocator.cpp ****         block->prev->next = block->next;
 432              		.loc 1 131 9 is_stmt 1
 131:src/MemoryAllocator.cpp ****         block->prev->next = block->next;
 433              		.loc 1 131 16 is_stmt 0
 434 0270 03370501 		ld	a4,16(a0)
 131:src/MemoryAllocator.cpp ****         block->prev->next = block->next;
 435              		.loc 1 131 36
 436 0274 83378500 		ld	a5,8(a0)
 131:src/MemoryAllocator.cpp ****         block->prev->next = block->next;
 437              		.loc 1 131 27
 438 0278 2334F700 		sd	a5,8(a4)
 132:src/MemoryAllocator.cpp ****         if(block->next) block->next->prev = block->prev;
 439              		.loc 1 132 9 is_stmt 1
 440 027c E38A07FA 		beqz	a5,.L25
 132:src/MemoryAllocator.cpp ****         if(block->next) block->next->prev = block->prev;
 441              		.loc 1 132 25 discriminator 1
 132:src/MemoryAllocator.cpp ****         if(block->next) block->next->prev = block->prev;
 442              		.loc 1 132 52 is_stmt 0 discriminator 1
 443 0280 03370501 		ld	a4,16(a0)
 132:src/MemoryAllocator.cpp ****         if(block->next) block->next->prev = block->prev;
 444              		.loc 1 132 43 discriminator 1
 445 0284 23B8E700 		sd	a4,16(a5)
 446 0288 6FF09FFA 		j	.L25
 447              		.cfi_endproc
 448              	.LFE6:
 450              		.align	2
 451              		.globl	_ZN15MemoryAllocator8mem_freeEPv
 453              	_ZN15MemoryAllocator8mem_freeEPv:
 454              	.LFB5:
  76:src/MemoryAllocator.cpp **** int MemoryAllocator::mem_free(void* addr) {
 455              		.loc 1 76 43 is_stmt 1
 456              		.cfi_startproc
 457              	.LVL23:
  77:src/MemoryAllocator.cpp ****     if(!addr) return -1;
 458              		.loc 1 77 5
 459 028c 630E0512 		beqz	a0,.L45
  76:src/MemoryAllocator.cpp **** int MemoryAllocator::mem_free(void* addr) {
 460              		.loc 1 76 43 is_stmt 0
 461 0290 130101FE 		addi	sp,sp,-32
 462              		.cfi_def_cfa_offset 32
 463 0294 233C1100 		sd	ra,24(sp)
GAS LISTING /tmp/ccEXyffT.s 			page 13


 464 0298 23388100 		sd	s0,16(sp)
 465 029c 23349100 		sd	s1,8(sp)
 466              		.cfi_offset 1, -8
 467              		.cfi_offset 8, -16
 468              		.cfi_offset 9, -24
 469 02a0 13040102 		addi	s0,sp,32
 470              		.cfi_def_cfa 8, 0
 471 02a4 93040500 		mv	s1,a0
  78:src/MemoryAllocator.cpp ****     if(addr < HEAP_START_ADDR || addr >= HEAP_END_ADDR) return -2;
 472              		.loc 1 78 5 is_stmt 1
  78:src/MemoryAllocator.cpp ****     if(addr < HEAP_START_ADDR || addr >= HEAP_END_ADDR) return -2;
 473              		.loc 1 78 13 is_stmt 0
 474 02a8 97070000 		la	a5,HEAP_START_ADDR
 474      83B70700 
 475 02b0 83B70700 		ld	a5,0(a5)
  78:src/MemoryAllocator.cpp ****     if(addr < HEAP_START_ADDR || addr >= HEAP_END_ADDR) return -2;
 476              		.loc 1 78 5
 477 02b4 636EF510 		bgtu	a5,a0,.L46
  78:src/MemoryAllocator.cpp ****     if(addr < HEAP_START_ADDR || addr >= HEAP_END_ADDR) return -2;
 478              		.loc 1 78 39 discriminator 2
 479 02b8 97070000 		la	a5,HEAP_END_ADDR
 479      83B70700 
 480 02c0 83B70700 		ld	a5,0(a5)
  78:src/MemoryAllocator.cpp ****     if(addr < HEAP_START_ADDR || addr >= HEAP_END_ADDR) return -2;
 481              		.loc 1 78 31 discriminator 2
 482 02c4 637AF510 		bleu	a5,a0,.L47
  80:src/MemoryAllocator.cpp ****     BlockHeader* block = (BlockHeader*)((char*)addr - MEM_BLOCK_SIZE);
 483              		.loc 1 80 5 is_stmt 1
  80:src/MemoryAllocator.cpp ****     BlockHeader* block = (BlockHeader*)((char*)addr - MEM_BLOCK_SIZE);
 484              		.loc 1 80 18 is_stmt 0
 485 02c8 130505FC 		addi	a0,a0,-64
 486              	.LVL24:
  81:src/MemoryAllocator.cpp ****     if (block < allocHead) return -3;
 487              		.loc 1 81 5 is_stmt 1
  81:src/MemoryAllocator.cpp ****     if (block < allocHead) return -3;
 488              		.loc 1 81 15 is_stmt 0
 489 02cc 97070000 		ld	a5,.LANCHOR0+8
 489      83B70700 
  81:src/MemoryAllocator.cpp ****     if (block < allocHead) return -3;
 490              		.loc 1 81 5
 491 02d4 6378F500 		bleu	a5,a0,.L35
  81:src/MemoryAllocator.cpp ****     if (block < allocHead) return -3;
 492              		.loc 1 81 36
 493 02d8 1305D0FF 		li	a0,-3
 494              	.LVL25:
 495 02dc 6F00C009 		j	.L32
 496              	.LVL26:
 497              	.L34:
  90:src/MemoryAllocator.cpp ****         tmp = tmp->next;
 498              		.loc 1 90 9 is_stmt 1
  90:src/MemoryAllocator.cpp ****         tmp = tmp->next;
 499              		.loc 1 90 13 is_stmt 0
 500 02e0 83B78700 		ld	a5,8(a5)
 501              	.LVL27:
 502              	.L35:
  85:src/MemoryAllocator.cpp ****     while(tmp) {
 503              		.loc 1 85 5 is_stmt 1
GAS LISTING /tmp/ccEXyffT.s 			page 14


  85:src/MemoryAllocator.cpp ****     while(tmp) {
 504              		.loc 1 85 11
 505 02e4 638C0700 		beqz	a5,.L49
  86:src/MemoryAllocator.cpp ****         if(tmp == block && !block->isFree) {  //proveram jel blok sa datom addr bio alociran
 506              		.loc 1 86 9
 507 02e8 E39CA7FE 		bne	a5,a0,.L34
  86:src/MemoryAllocator.cpp ****         if(tmp == block && !block->isFree) {  //proveram jel blok sa datom addr bio alociran
 508              		.loc 1 86 36 is_stmt 0 discriminator 1
 509 02ec 03C784FD 		lbu	a4,-40(s1)
  86:src/MemoryAllocator.cpp ****         if(tmp == block && !block->isFree) {  //proveram jel blok sa datom addr bio alociran
 510              		.loc 1 86 25 discriminator 1
 511 02f0 E31807FE 		bnez	a4,.L34
  87:src/MemoryAllocator.cpp ****             isAllocated = true;
 512              		.loc 1 87 25
 513 02f4 93071000 		li	a5,1
 514              	.LVL28:
 515 02f8 6F008000 		j	.L33
 516              	.LVL29:
 517              	.L49:
  83:src/MemoryAllocator.cpp ****     bool isAllocated = false;
 518              		.loc 1 83 10
 519 02fc 93070000 		li	a5,0
 520              	.LVL30:
 521              	.L33:
  92:src/MemoryAllocator.cpp ****     if(!isAllocated) return -3;
 522              		.loc 1 92 5 is_stmt 1
 523 0300 6380070E 		beqz	a5,.L51
  94:src/MemoryAllocator.cpp ****     if(block->prev) block->prev->next = block->next;
 524              		.loc 1 94 5
  94:src/MemoryAllocator.cpp ****     if(block->prev) block->prev->next = block->next;
 525              		.loc 1 94 15 is_stmt 0
 526 0304 83B704FD 		ld	a5,-48(s1)
 527              	.LVL31:
  94:src/MemoryAllocator.cpp ****     if(block->prev) block->prev->next = block->next;
 528              		.loc 1 94 5
 529 0308 63820708 		beqz	a5,.L36
  94:src/MemoryAllocator.cpp ****     if(block->prev) block->prev->next = block->next;
 530              		.loc 1 94 21 is_stmt 1 discriminator 1
  94:src/MemoryAllocator.cpp ****     if(block->prev) block->prev->next = block->next;
 531              		.loc 1 94 48 is_stmt 0 discriminator 1
 532 030c 03B784FC 		ld	a4,-56(s1)
  94:src/MemoryAllocator.cpp ****     if(block->prev) block->prev->next = block->next;
 533              		.loc 1 94 39 discriminator 1
 534 0310 23B4E700 		sd	a4,8(a5)
 535              	.L37:
  96:src/MemoryAllocator.cpp ****     if(block->next) block->next->prev = block->prev;
 536              		.loc 1 96 5 is_stmt 1
  96:src/MemoryAllocator.cpp ****     if(block->next) block->next->prev = block->prev;
 537              		.loc 1 96 15 is_stmt 0
 538 0314 83B784FC 		ld	a5,-56(s1)
  96:src/MemoryAllocator.cpp ****     if(block->next) block->next->prev = block->prev;
 539              		.loc 1 96 5
 540 0318 63860700 		beqz	a5,.L38
  96:src/MemoryAllocator.cpp ****     if(block->next) block->next->prev = block->prev;
 541              		.loc 1 96 21 is_stmt 1 discriminator 1
  96:src/MemoryAllocator.cpp ****     if(block->next) block->next->prev = block->prev;
 542              		.loc 1 96 48 is_stmt 0 discriminator 1
GAS LISTING /tmp/ccEXyffT.s 			page 15


 543 031c 03B704FD 		ld	a4,-48(s1)
  96:src/MemoryAllocator.cpp ****     if(block->next) block->next->prev = block->prev;
 544              		.loc 1 96 39 discriminator 1
 545 0320 23B8E700 		sd	a4,16(a5)
 546              	.L38:
  98:src/MemoryAllocator.cpp ****     block->isFree = true;
 547              		.loc 1 98 5 is_stmt 1
  98:src/MemoryAllocator.cpp ****     block->isFree = true;
 548              		.loc 1 98 19 is_stmt 0
 549 0324 93071000 		li	a5,1
 550 0328 238CF4FC 		sb	a5,-40(s1)
 100:src/MemoryAllocator.cpp ****     if(!freeHead || block < freeHead) { //ubacujem u listu slobodnih po adr
 551              		.loc 1 100 5 is_stmt 1
 552              	.LBB15:
 100:src/MemoryAllocator.cpp ****     if(!freeHead || block < freeHead) { //ubacujem u listu slobodnih po adr
 553              		.loc 1 100 8 is_stmt 0
 554 032c 97070000 		ld	a5,.LANCHOR0
 554      83B70700 
 100:src/MemoryAllocator.cpp ****     if(!freeHead || block < freeHead) { //ubacujem u listu slobodnih po adr
 555              		.loc 1 100 5
 556 0334 63840700 		beqz	a5,.L39
 100:src/MemoryAllocator.cpp ****     if(!freeHead || block < freeHead) { //ubacujem u listu slobodnih po adr
 557              		.loc 1 100 18 discriminator 1
 558 0338 6372F506 		bleu	a5,a0,.L40
 559              	.L39:
 101:src/MemoryAllocator.cpp ****         block->next = freeHead;
 560              		.loc 1 101 9 is_stmt 1
 101:src/MemoryAllocator.cpp ****         block->next = freeHead;
 561              		.loc 1 101 21 is_stmt 0
 562 033c 23B4F4FC 		sd	a5,-56(s1)
 102:src/MemoryAllocator.cpp ****         block->prev = nullptr;
 563              		.loc 1 102 9 is_stmt 1
 102:src/MemoryAllocator.cpp ****         block->prev = nullptr;
 564              		.loc 1 102 21 is_stmt 0
 565 0340 23B804FC 		sd	zero,-48(s1)
 103:src/MemoryAllocator.cpp ****         if(freeHead) freeHead->prev = block;
 566              		.loc 1 103 9 is_stmt 1
 103:src/MemoryAllocator.cpp ****         if(freeHead) freeHead->prev = block;
 567              		.loc 1 103 20 is_stmt 0
 568 0344 97070000 		ld	a5,.LANCHOR0
 568      83B70700 
 103:src/MemoryAllocator.cpp ****         if(freeHead) freeHead->prev = block;
 569              		.loc 1 103 9
 570 034c 63840700 		beqz	a5,.L41
 103:src/MemoryAllocator.cpp ****         if(freeHead) freeHead->prev = block;
 571              		.loc 1 103 22 is_stmt 1 discriminator 1
 103:src/MemoryAllocator.cpp ****         if(freeHead) freeHead->prev = block;
 572              		.loc 1 103 37 is_stmt 0 discriminator 1
 573 0350 23B8A700 		sd	a0,16(a5)
 574              	.L41:
 104:src/MemoryAllocator.cpp ****         freeHead = block;
 575              		.loc 1 104 9 is_stmt 1
 104:src/MemoryAllocator.cpp ****         freeHead = block;
 576              		.loc 1 104 18 is_stmt 0
 577 0354 97070000 		sd	a0,.LANCHOR0,a5
 577      23B0A700 
 578              	.L42:
GAS LISTING /tmp/ccEXyffT.s 			page 16


 579              	.LBE15:
 114:src/MemoryAllocator.cpp ****     tryToJoin(block); //pokusavam spajanje
 580              		.loc 1 114 5 is_stmt 1
 114:src/MemoryAllocator.cpp ****     tryToJoin(block); //pokusavam spajanje
 581              		.loc 1 114 14 is_stmt 0
 582 035c 97000000 		call	_ZN15MemoryAllocator9tryToJoinEP11BlockHeader
 582      E7800000 
 583              	.LVL32:
 115:src/MemoryAllocator.cpp ****     if(block->prev) tryToJoin(block->prev);
 584              		.loc 1 115 5 is_stmt 1
 115:src/MemoryAllocator.cpp ****     if(block->prev) tryToJoin(block->prev);
 585              		.loc 1 115 15 is_stmt 0
 586 0364 03B504FD 		ld	a0,-48(s1)
 115:src/MemoryAllocator.cpp ****     if(block->prev) tryToJoin(block->prev);
 587              		.loc 1 115 5
 588 0368 63000508 		beqz	a0,.L52
 115:src/MemoryAllocator.cpp ****     if(block->prev) tryToJoin(block->prev);
 589              		.loc 1 115 21 is_stmt 1 discriminator 1
 115:src/MemoryAllocator.cpp ****     if(block->prev) tryToJoin(block->prev);
 590              		.loc 1 115 30 is_stmt 0 discriminator 1
 591 036c 97000000 		call	_ZN15MemoryAllocator9tryToJoinEP11BlockHeader
 591      E7800000 
 592              	.LVL33:
 117:src/MemoryAllocator.cpp ****     return 0;
 593              		.loc 1 117 12 discriminator 1
 594 0374 13050000 		li	a0,0
 595              	.LVL34:
 596              	.L32:
 118:src/MemoryAllocator.cpp **** }
 597              		.loc 1 118 1
 598 0378 83308101 		ld	ra,24(sp)
 599              		.cfi_remember_state
 600              		.cfi_restore 1
 601 037c 03340101 		ld	s0,16(sp)
 602              		.cfi_restore 8
 603              		.cfi_def_cfa 2, 32
 604 0380 83348100 		ld	s1,8(sp)
 605              		.cfi_restore 9
 606              	.LVL35:
 607 0384 13010102 		addi	sp,sp,32
 608              		.cfi_def_cfa_offset 0
 609 0388 67800000 		jr	ra
 610              	.LVL36:
 611              	.L36:
 612              		.cfi_restore_state
  95:src/MemoryAllocator.cpp ****     else allocHead = block->next;
 613              		.loc 1 95 10 is_stmt 1
  95:src/MemoryAllocator.cpp ****     else allocHead = block->next;
 614              		.loc 1 95 29 is_stmt 0
 615 038c 83B784FC 		ld	a5,-56(s1)
  95:src/MemoryAllocator.cpp ****     else allocHead = block->next;
 616              		.loc 1 95 20
 617 0390 17070000 		sd	a5,.LANCHOR0+8,a4
 617      2330F700 
 618 0398 6FF0DFF7 		j	.L37
 619              	.L40:
 620              	.LVL37:
GAS LISTING /tmp/ccEXyffT.s 			page 17


 621              	.LBB17:
 622              	.LBB16:
 107:src/MemoryAllocator.cpp ****         while(curr->next && curr->next < block) curr = curr->next;
 623              		.loc 1 107 9 is_stmt 1 discriminator 3
 107:src/MemoryAllocator.cpp ****         while(curr->next && curr->next < block) curr = curr->next;
 624              		.loc 1 107 26 discriminator 3
 625 039c 13870700 		mv	a4,a5
 107:src/MemoryAllocator.cpp ****         while(curr->next && curr->next < block) curr = curr->next;
 626              		.loc 1 107 21 is_stmt 0 discriminator 3
 627 03a0 83B78700 		ld	a5,8(a5)
 628              	.LVL38:
 107:src/MemoryAllocator.cpp ****         while(curr->next && curr->next < block) curr = curr->next;
 629              		.loc 1 107 26 discriminator 3
 630 03a4 63840700 		beqz	a5,.L43
 107:src/MemoryAllocator.cpp ****         while(curr->next && curr->next < block) curr = curr->next;
 631              		.loc 1 107 26 discriminator 1
 632 03a8 E3EAA7FE 		bltu	a5,a0,.L40
 633              	.L43:
 108:src/MemoryAllocator.cpp ****         block->next = curr->next;
 634              		.loc 1 108 9 is_stmt 1
 108:src/MemoryAllocator.cpp ****         block->next = curr->next;
 635              		.loc 1 108 21 is_stmt 0
 636 03ac 23B4F4FC 		sd	a5,-56(s1)
 109:src/MemoryAllocator.cpp ****         block->prev = curr;
 637              		.loc 1 109 9 is_stmt 1
 109:src/MemoryAllocator.cpp ****         block->prev = curr;
 638              		.loc 1 109 21 is_stmt 0
 639 03b0 23B8E4FC 		sd	a4,-48(s1)
 110:src/MemoryAllocator.cpp ****         if(curr->next) curr->next->prev = block;
 640              		.loc 1 110 9 is_stmt 1
 110:src/MemoryAllocator.cpp ****         if(curr->next) curr->next->prev = block;
 641              		.loc 1 110 18 is_stmt 0
 642 03b4 83378700 		ld	a5,8(a4)
 110:src/MemoryAllocator.cpp ****         if(curr->next) curr->next->prev = block;
 643              		.loc 1 110 9
 644 03b8 63840700 		beqz	a5,.L44
 110:src/MemoryAllocator.cpp ****         if(curr->next) curr->next->prev = block;
 645              		.loc 1 110 24 is_stmt 1 discriminator 1
 110:src/MemoryAllocator.cpp ****         if(curr->next) curr->next->prev = block;
 646              		.loc 1 110 41 is_stmt 0 discriminator 1
 647 03bc 23B8A700 		sd	a0,16(a5)
 648              	.L44:
 111:src/MemoryAllocator.cpp ****         curr->next = block;
 649              		.loc 1 111 9 is_stmt 1
 111:src/MemoryAllocator.cpp ****         curr->next = block;
 650              		.loc 1 111 20 is_stmt 0
 651 03c0 2334A700 		sd	a0,8(a4)
 652 03c4 6FF09FF9 		j	.L42
 653              	.LVL39:
 654              	.L45:
 655              		.cfi_def_cfa_register 2
 656              		.cfi_restore 1
 657              		.cfi_restore 8
 658              		.cfi_restore 9
 659              	.LBE16:
 660              	.LBE17:
  77:src/MemoryAllocator.cpp ****     if(!addr) return -1;
GAS LISTING /tmp/ccEXyffT.s 			page 18


 661              		.loc 1 77 23
 662 03c8 1305F0FF 		li	a0,-1
 663              	.LVL40:
 118:src/MemoryAllocator.cpp **** }
 664              		.loc 1 118 1
 665 03cc 67800000 		ret
 666              	.LVL41:
 667              	.L46:
 668              		.cfi_def_cfa_register 8
 669              		.cfi_offset 1, -8
 670              		.cfi_offset 8, -16
 671              		.cfi_offset 9, -24
  78:src/MemoryAllocator.cpp ****     if(addr < HEAP_START_ADDR || addr >= HEAP_END_ADDR) return -2;
 672              		.loc 1 78 65
 673 03d0 1305E0FF 		li	a0,-2
 674 03d4 6FF05FFA 		j	.L32
 675              	.L47:
 676 03d8 1305E0FF 		li	a0,-2
 677 03dc 6FF0DFF9 		j	.L32
 678              	.LVL42:
 679              	.L51:
  92:src/MemoryAllocator.cpp ****     if(!isAllocated) return -3;
 680              		.loc 1 92 30
 681 03e0 1305D0FF 		li	a0,-3
 682              	.LVL43:
 683 03e4 6FF05FF9 		j	.L32
 684              	.LVL44:
 685              	.L52:
 117:src/MemoryAllocator.cpp ****     return 0;
 686              		.loc 1 117 12
 687 03e8 13050000 		li	a0,0
 688 03ec 6FF0DFF8 		j	.L32
 689              		.cfi_endproc
 690              	.LFE5:
 692              		.globl	_ZN15MemoryAllocator9allocHeadE
 693              		.globl	_ZN15MemoryAllocator8freeHeadE
 694              		.bss
 695              		.align	3
 696              		.set	.LANCHOR0,. + 0
 699              	_ZN15MemoryAllocator8freeHeadE:
 700 0000 00000000 		.zero	8
 700      00000000 
 703              	_ZN15MemoryAllocator9allocHeadE:
 704 0008 00000000 		.zero	8
 704      00000000 
 705              		.text
 706              	.Letext0:
 707              		.file 2 "src/../h/../lib/hw.h"
 708              		.file 3 "src/../h/MemoryAllocator.hpp"
GAS LISTING /tmp/ccEXyffT.s 			page 19


DEFINED SYMBOLS
                            *ABS*:0000000000000000 MemoryAllocator.cpp
     /tmp/ccEXyffT.s:9      .text:0000000000000000 _ZN15MemoryAllocator4initEv
     /tmp/ccEXyffT.s:13     .text:0000000000000000 .L0 
     /tmp/ccEXyffT.s:14     .text:0000000000000000 .L0 
     /tmp/ccEXyffT.s:15     .text:0000000000000004 .L0 
     /tmp/ccEXyffT.s:17     .text:0000000000000008 .L0 
     /tmp/ccEXyffT.s:19     .text:000000000000000c .L0 
     /tmp/ccEXyffT.s:21     .text:000000000000000c .L0 
     /tmp/ccEXyffT.s:22     .text:000000000000000c .L0 
     /tmp/ccEXyffT.s:26     .text:000000000000001c .L0 
     /tmp/ccEXyffT.s:29     .text:0000000000000020 .L0 
     /tmp/ccEXyffT.s:30     .text:0000000000000020 .L0 
     /tmp/ccEXyffT.s:33     .text:000000000000002c .L0 
     /tmp/ccEXyffT.s:34     .text:000000000000002c .L0 
     /tmp/ccEXyffT.s:38     .text:000000000000003c .L0 
     /tmp/ccEXyffT.s:40     .text:0000000000000040 .L0 
     /tmp/ccEXyffT.s:42     .text:0000000000000044 .L0 
     /tmp/ccEXyffT.s:44     .text:0000000000000048 .L0 
     /tmp/ccEXyffT.s:45     .text:0000000000000048 .L0 
     /tmp/ccEXyffT.s:48     .text:000000000000004c .L0 
     /tmp/ccEXyffT.s:50     .text:0000000000000050 .L0 
     /tmp/ccEXyffT.s:51     .text:0000000000000050 .L0 
     /tmp/ccEXyffT.s:53     .text:0000000000000054 .L0 
     /tmp/ccEXyffT.s:54     .text:0000000000000054 .L0 
     /tmp/ccEXyffT.s:57     .text:000000000000005c .L0 
     /tmp/ccEXyffT.s:58     .text:0000000000000060 .L0 
     /tmp/ccEXyffT.s:59     .text:0000000000000060 .L0 
     /tmp/ccEXyffT.s:61     .text:0000000000000064 .L0 
     /tmp/ccEXyffT.s:63     .text:0000000000000068 .L0 
     /tmp/ccEXyffT.s:69     .text:0000000000000068 _ZN15MemoryAllocator9mem_allocEm
     /tmp/ccEXyffT.s:72     .text:0000000000000068 .L0 
     /tmp/ccEXyffT.s:74     .text:0000000000000068 .L0 
     /tmp/ccEXyffT.s:75     .text:000000000000006c .L0 
     /tmp/ccEXyffT.s:77     .text:0000000000000070 .L0 
     /tmp/ccEXyffT.s:79     .text:0000000000000074 .L0 
     /tmp/ccEXyffT.s:81     .text:0000000000000074 .L0 
     /tmp/ccEXyffT.s:84     .text:000000000000007c .L0 
     /tmp/ccEXyffT.s:87     .text:0000000000000084 .L0 
     /tmp/ccEXyffT.s:89     .text:0000000000000088 .L0 
     /tmp/ccEXyffT.s:90     .text:0000000000000088 .L0 
     /tmp/ccEXyffT.s:96     .text:00000000000000a4 .L0 
     /tmp/ccEXyffT.s:98     .text:00000000000000a8 .L0 
     /tmp/ccEXyffT.s:99     .text:00000000000000a8 .L0 
     /tmp/ccEXyffT.s:102    .text:00000000000000ac .L0 
     /tmp/ccEXyffT.s:103    .text:00000000000000ac .L0 
     /tmp/ccEXyffT.s:111    .text:00000000000000b0 .L0 
     /tmp/ccEXyffT.s:112    .text:00000000000000b0 .L0 
     /tmp/ccEXyffT.s:114    .text:00000000000000b4 .L0 
     /tmp/ccEXyffT.s:116    .text:00000000000000b8 .L0 
     /tmp/ccEXyffT.s:117    .text:00000000000000b8 .L0 
     /tmp/ccEXyffT.s:120    .text:00000000000000bc .L0 
     /tmp/ccEXyffT.s:123    .text:00000000000000c0 .L0 
     /tmp/ccEXyffT.s:124    .text:00000000000000c0 .L0 
     /tmp/ccEXyffT.s:126    .text:00000000000000c4 .L0 
     /tmp/ccEXyffT.s:128    .text:00000000000000c8 .L0 
     /tmp/ccEXyffT.s:129    .text:00000000000000c8 .L0 
GAS LISTING /tmp/ccEXyffT.s 			page 20


     /tmp/ccEXyffT.s:131    .text:00000000000000cc .L0 
     /tmp/ccEXyffT.s:136    .text:00000000000000d4 .L0 
     /tmp/ccEXyffT.s:137    .text:00000000000000d4 .L0 
     /tmp/ccEXyffT.s:139    .text:00000000000000d8 .L0 
     /tmp/ccEXyffT.s:146    .text:00000000000000e4 .L0 
     /tmp/ccEXyffT.s:147    .text:00000000000000e4 .L0 
     /tmp/ccEXyffT.s:156    .text:00000000000000f0 .L0 
     /tmp/ccEXyffT.s:157    .text:00000000000000f0 .L0 
     /tmp/ccEXyffT.s:162    .text:00000000000000f4 .L0 
     /tmp/ccEXyffT.s:163    .text:00000000000000f4 .L0 
     /tmp/ccEXyffT.s:167    .text:00000000000000f8 .L0 
     /tmp/ccEXyffT.s:168    .text:00000000000000f8 .L0 
     /tmp/ccEXyffT.s:170    .text:00000000000000fc .L0 
     /tmp/ccEXyffT.s:172    .text:0000000000000100 .L0 
     /tmp/ccEXyffT.s:174    .text:0000000000000104 .L0 
     /tmp/ccEXyffT.s:178    .text:0000000000000108 .L0 
     /tmp/ccEXyffT.s:180    .text:0000000000000108 .L0 
     /tmp/ccEXyffT.s:183    .text:000000000000010c .L0 
     /tmp/ccEXyffT.s:184    .text:000000000000010c .L0 
     /tmp/ccEXyffT.s:186    .text:0000000000000110 .L0 
     /tmp/ccEXyffT.s:189    .text:0000000000000114 .L0 
     /tmp/ccEXyffT.s:190    .text:0000000000000114 .L0 
     /tmp/ccEXyffT.s:192    .text:0000000000000118 .L0 
     /tmp/ccEXyffT.s:194    .text:000000000000011c .L0 
     /tmp/ccEXyffT.s:195    .text:000000000000011c .L0 
     /tmp/ccEXyffT.s:198    .text:0000000000000124 .L0 
     /tmp/ccEXyffT.s:199    .text:0000000000000124 .L0 
     /tmp/ccEXyffT.s:201    .text:0000000000000128 .L0 
     /tmp/ccEXyffT.s:203    .text:000000000000012c .L0 
     /tmp/ccEXyffT.s:204    .text:000000000000012c .L0 
     /tmp/ccEXyffT.s:206    .text:0000000000000130 .L0 
     /tmp/ccEXyffT.s:208    .text:0000000000000134 .L0 
     /tmp/ccEXyffT.s:210    .text:0000000000000138 .L0 
     /tmp/ccEXyffT.s:211    .text:0000000000000138 .L0 
     /tmp/ccEXyffT.s:214    .text:000000000000013c .L0 
     /tmp/ccEXyffT.s:215    .text:000000000000013c .L0 
     /tmp/ccEXyffT.s:217    .text:0000000000000140 .L0 
     /tmp/ccEXyffT.s:219    .text:0000000000000144 .L0 
     /tmp/ccEXyffT.s:220    .text:0000000000000144 .L0 
     /tmp/ccEXyffT.s:223    .text:0000000000000148 .L0 
     /tmp/ccEXyffT.s:224    .text:0000000000000148 .L0 
     /tmp/ccEXyffT.s:230    .text:000000000000014c .L0 
     /tmp/ccEXyffT.s:231    .text:000000000000014c .L0 
     /tmp/ccEXyffT.s:233    .text:0000000000000150 .L0 
     /tmp/ccEXyffT.s:234    .text:0000000000000150 .L0 
     /tmp/ccEXyffT.s:236    .text:0000000000000154 .L0 
     /tmp/ccEXyffT.s:237    .text:0000000000000154 .L0 
     /tmp/ccEXyffT.s:244    .text:0000000000000158 .L0 
     /tmp/ccEXyffT.s:245    .text:0000000000000158 .L0 
     /tmp/ccEXyffT.s:248    .text:000000000000015c .L0 
     /tmp/ccEXyffT.s:249    .text:000000000000015c .L0 
     /tmp/ccEXyffT.s:251    .text:0000000000000164 .L0 
     /tmp/ccEXyffT.s:253    .text:0000000000000168 .L0 
     /tmp/ccEXyffT.s:256    .text:000000000000016c .L0 
     /tmp/ccEXyffT.s:257    .text:000000000000016c .L0 
     /tmp/ccEXyffT.s:259    .text:0000000000000170 .L0 
     /tmp/ccEXyffT.s:260    .text:0000000000000170 .L0 
GAS LISTING /tmp/ccEXyffT.s 			page 21


     /tmp/ccEXyffT.s:262    .text:0000000000000174 .L0 
     /tmp/ccEXyffT.s:264    .text:0000000000000178 .L0 
     /tmp/ccEXyffT.s:265    .text:0000000000000178 .L0 
     /tmp/ccEXyffT.s:268    .text:000000000000017c .L0 
     /tmp/ccEXyffT.s:269    .text:000000000000017c .L0 
     /tmp/ccEXyffT.s:273    .text:0000000000000184 .L0 
     /tmp/ccEXyffT.s:274    .text:0000000000000184 .L0 
     /tmp/ccEXyffT.s:278    .text:0000000000000188 .L0 
     /tmp/ccEXyffT.s:279    .text:000000000000018c .L0 
     /tmp/ccEXyffT.s:280    .text:000000000000018c .L0 
     /tmp/ccEXyffT.s:281    .text:000000000000018c .L0 
     /tmp/ccEXyffT.s:283    .text:0000000000000190 .L0 
     /tmp/ccEXyffT.s:287    .text:0000000000000194 .L0 
     /tmp/ccEXyffT.s:291    .text:0000000000000194 .L0 
     /tmp/ccEXyffT.s:292    .text:0000000000000194 .L0 
     /tmp/ccEXyffT.s:294    .text:0000000000000198 .L0 
     /tmp/ccEXyffT.s:297    .text:000000000000019c .L0 
     /tmp/ccEXyffT.s:299    .text:00000000000001a0 .L0 
     /tmp/ccEXyffT.s:302    .text:00000000000001a4 .L0 
     /tmp/ccEXyffT.s:303    .text:00000000000001a4 .L0 
     /tmp/ccEXyffT.s:305    .text:00000000000001a8 .L0 
     /tmp/ccEXyffT.s:306    .text:00000000000001a8 .L0 
     /tmp/ccEXyffT.s:308    .text:00000000000001ac .L0 
     /tmp/ccEXyffT.s:309    .text:00000000000001ac .L0 
     /tmp/ccEXyffT.s:311    .text:00000000000001b0 .L0 
     /tmp/ccEXyffT.s:313    .text:00000000000001b4 .L0 
     /tmp/ccEXyffT.s:314    .text:00000000000001b4 .L0 
     /tmp/ccEXyffT.s:317    .text:00000000000001b8 .L0 
     /tmp/ccEXyffT.s:318    .text:00000000000001b8 .L0 
     /tmp/ccEXyffT.s:325    .text:00000000000001c0 .L0 
     /tmp/ccEXyffT.s:331    .text:00000000000001c8 .L0 
     /tmp/ccEXyffT.s:333    .text:00000000000001d0 .L0 
     /tmp/ccEXyffT.s:339    .text:00000000000001d0 _ZN15MemoryAllocator9tryToJoinEP11BlockHeader
     /tmp/ccEXyffT.s:342    .text:00000000000001d0 .L0 
     /tmp/ccEXyffT.s:344    .text:00000000000001d0 .L0 
     /tmp/ccEXyffT.s:345    .text:00000000000001d4 .L0 
     /tmp/ccEXyffT.s:347    .text:00000000000001d8 .L0 
     /tmp/ccEXyffT.s:349    .text:00000000000001dc .L0 
     /tmp/ccEXyffT.s:351    .text:00000000000001dc .L0 
     /tmp/ccEXyffT.s:353    .text:00000000000001e0 .L0 
     /tmp/ccEXyffT.s:355    .text:00000000000001e4 .L0 
     /tmp/ccEXyffT.s:357    .text:00000000000001e8 .L0 
     /tmp/ccEXyffT.s:358    .text:00000000000001e8 .L0 
     /tmp/ccEXyffT.s:360    .text:00000000000001ec .L0 
     /tmp/ccEXyffT.s:362    .text:00000000000001f0 .L0 
     /tmp/ccEXyffT.s:364    .text:00000000000001f4 .L0 
     /tmp/ccEXyffT.s:366    .text:00000000000001f8 .L0 
     /tmp/ccEXyffT.s:368    .text:00000000000001fc .L0 
     /tmp/ccEXyffT.s:370    .text:0000000000000200 .L0 
     /tmp/ccEXyffT.s:372    .text:0000000000000204 .L0 
     /tmp/ccEXyffT.s:374    .text:0000000000000208 .L0 
     /tmp/ccEXyffT.s:377    .text:000000000000020c .L0 
     /tmp/ccEXyffT.s:378    .text:000000000000020c .L0 
     /tmp/ccEXyffT.s:380    .text:0000000000000210 .L0 
     /tmp/ccEXyffT.s:382    .text:0000000000000214 .L0 
     /tmp/ccEXyffT.s:384    .text:0000000000000218 .L0 
     /tmp/ccEXyffT.s:386    .text:000000000000021c .L0 
GAS LISTING /tmp/ccEXyffT.s 			page 22


     /tmp/ccEXyffT.s:388    .text:0000000000000220 .L0 
     /tmp/ccEXyffT.s:390    .text:0000000000000224 .L0 
     /tmp/ccEXyffT.s:392    .text:0000000000000228 .L0 
     /tmp/ccEXyffT.s:394    .text:000000000000022c .L0 
     /tmp/ccEXyffT.s:397    .text:0000000000000230 .L0 
     /tmp/ccEXyffT.s:398    .text:0000000000000234 .L0 
     /tmp/ccEXyffT.s:399    .text:0000000000000234 .L0 
     /tmp/ccEXyffT.s:400    .text:0000000000000234 .L0 
     /tmp/ccEXyffT.s:402    .text:0000000000000238 .L0 
     /tmp/ccEXyffT.s:405    .text:000000000000023c .L0 
     /tmp/ccEXyffT.s:407    .text:000000000000023c .L0 
     /tmp/ccEXyffT.s:408    .text:000000000000023c .L0 
     /tmp/ccEXyffT.s:410    .text:0000000000000240 .L0 
     /tmp/ccEXyffT.s:414    .text:000000000000024c .L0 
     /tmp/ccEXyffT.s:415    .text:000000000000024c .L0 
     /tmp/ccEXyffT.s:417    .text:0000000000000250 .L0 
     /tmp/ccEXyffT.s:419    .text:0000000000000254 .L0 
     /tmp/ccEXyffT.s:421    .text:0000000000000258 .L0 
     /tmp/ccEXyffT.s:422    .text:0000000000000258 .L0 
     /tmp/ccEXyffT.s:426    .text:0000000000000260 .L0 
     /tmp/ccEXyffT.s:427    .text:0000000000000260 .L0 
     /tmp/ccEXyffT.s:429    .text:0000000000000264 .L0 
     /tmp/ccEXyffT.s:433    .text:0000000000000270 .L0 
     /tmp/ccEXyffT.s:434    .text:0000000000000270 .L0 
     /tmp/ccEXyffT.s:436    .text:0000000000000274 .L0 
     /tmp/ccEXyffT.s:438    .text:0000000000000278 .L0 
     /tmp/ccEXyffT.s:440    .text:000000000000027c .L0 
     /tmp/ccEXyffT.s:442    .text:0000000000000280 .L0 
     /tmp/ccEXyffT.s:443    .text:0000000000000280 .L0 
     /tmp/ccEXyffT.s:445    .text:0000000000000284 .L0 
     /tmp/ccEXyffT.s:447    .text:000000000000028c .L0 
     /tmp/ccEXyffT.s:453    .text:000000000000028c _ZN15MemoryAllocator8mem_freeEPv
     /tmp/ccEXyffT.s:456    .text:000000000000028c .L0 
     /tmp/ccEXyffT.s:458    .text:000000000000028c .L0 
     /tmp/ccEXyffT.s:459    .text:000000000000028c .L0 
     /tmp/ccEXyffT.s:461    .text:0000000000000290 .L0 
     /tmp/ccEXyffT.s:462    .text:0000000000000294 .L0 
     /tmp/ccEXyffT.s:466    .text:00000000000002a0 .L0 
     /tmp/ccEXyffT.s:467    .text:00000000000002a0 .L0 
     /tmp/ccEXyffT.s:468    .text:00000000000002a0 .L0 
     /tmp/ccEXyffT.s:470    .text:00000000000002a4 .L0 
     /tmp/ccEXyffT.s:473    .text:00000000000002a8 .L0 
     /tmp/ccEXyffT.s:474    .text:00000000000002a8 .L0 
     /tmp/ccEXyffT.s:477    .text:00000000000002b4 .L0 
     /tmp/ccEXyffT.s:479    .text:00000000000002b8 .L0 
     /tmp/ccEXyffT.s:482    .text:00000000000002c4 .L0 
     /tmp/ccEXyffT.s:484    .text:00000000000002c8 .L0 
     /tmp/ccEXyffT.s:485    .text:00000000000002c8 .L0 
     /tmp/ccEXyffT.s:488    .text:00000000000002cc .L0 
     /tmp/ccEXyffT.s:489    .text:00000000000002cc .L0 
     /tmp/ccEXyffT.s:491    .text:00000000000002d4 .L0 
     /tmp/ccEXyffT.s:493    .text:00000000000002d8 .L0 
     /tmp/ccEXyffT.s:499    .text:00000000000002e0 .L0 
     /tmp/ccEXyffT.s:500    .text:00000000000002e0 .L0 
     /tmp/ccEXyffT.s:504    .text:00000000000002e4 .L0 
     /tmp/ccEXyffT.s:505    .text:00000000000002e4 .L0 
     /tmp/ccEXyffT.s:507    .text:00000000000002e8 .L0 
GAS LISTING /tmp/ccEXyffT.s 			page 23


     /tmp/ccEXyffT.s:509    .text:00000000000002ec .L0 
     /tmp/ccEXyffT.s:511    .text:00000000000002f0 .L0 
     /tmp/ccEXyffT.s:513    .text:00000000000002f4 .L0 
     /tmp/ccEXyffT.s:519    .text:00000000000002fc .L0 
     /tmp/ccEXyffT.s:523    .text:0000000000000300 .L0 
     /tmp/ccEXyffT.s:525    .text:0000000000000304 .L0 
     /tmp/ccEXyffT.s:526    .text:0000000000000304 .L0 
     /tmp/ccEXyffT.s:529    .text:0000000000000308 .L0 
     /tmp/ccEXyffT.s:531    .text:000000000000030c .L0 
     /tmp/ccEXyffT.s:532    .text:000000000000030c .L0 
     /tmp/ccEXyffT.s:534    .text:0000000000000310 .L0 
     /tmp/ccEXyffT.s:537    .text:0000000000000314 .L0 
     /tmp/ccEXyffT.s:538    .text:0000000000000314 .L0 
     /tmp/ccEXyffT.s:540    .text:0000000000000318 .L0 
     /tmp/ccEXyffT.s:542    .text:000000000000031c .L0 
     /tmp/ccEXyffT.s:543    .text:000000000000031c .L0 
     /tmp/ccEXyffT.s:545    .text:0000000000000320 .L0 
     /tmp/ccEXyffT.s:548    .text:0000000000000324 .L0 
     /tmp/ccEXyffT.s:549    .text:0000000000000324 .L0 
     /tmp/ccEXyffT.s:553    .text:000000000000032c .L0 
     /tmp/ccEXyffT.s:554    .text:000000000000032c .L0 
     /tmp/ccEXyffT.s:556    .text:0000000000000334 .L0 
     /tmp/ccEXyffT.s:558    .text:0000000000000338 .L0 
     /tmp/ccEXyffT.s:561    .text:000000000000033c .L0 
     /tmp/ccEXyffT.s:562    .text:000000000000033c .L0 
     /tmp/ccEXyffT.s:564    .text:0000000000000340 .L0 
     /tmp/ccEXyffT.s:565    .text:0000000000000340 .L0 
     /tmp/ccEXyffT.s:567    .text:0000000000000344 .L0 
     /tmp/ccEXyffT.s:568    .text:0000000000000344 .L0 
     /tmp/ccEXyffT.s:570    .text:000000000000034c .L0 
     /tmp/ccEXyffT.s:572    .text:0000000000000350 .L0 
     /tmp/ccEXyffT.s:573    .text:0000000000000350 .L0 
     /tmp/ccEXyffT.s:576    .text:0000000000000354 .L0 
     /tmp/ccEXyffT.s:577    .text:0000000000000354 .L0 
     /tmp/ccEXyffT.s:581    .text:000000000000035c .L0 
     /tmp/ccEXyffT.s:582    .text:000000000000035c .L0 
     /tmp/ccEXyffT.s:585    .text:0000000000000364 .L0 
     /tmp/ccEXyffT.s:586    .text:0000000000000364 .L0 
     /tmp/ccEXyffT.s:588    .text:0000000000000368 .L0 
     /tmp/ccEXyffT.s:590    .text:000000000000036c .L0 
     /tmp/ccEXyffT.s:591    .text:000000000000036c .L0 
     /tmp/ccEXyffT.s:594    .text:0000000000000374 .L0 
     /tmp/ccEXyffT.s:598    .text:0000000000000378 .L0 
     /tmp/ccEXyffT.s:599    .text:000000000000037c .L0 
     /tmp/ccEXyffT.s:600    .text:000000000000037c .L0 
     /tmp/ccEXyffT.s:602    .text:0000000000000380 .L0 
     /tmp/ccEXyffT.s:603    .text:0000000000000380 .L0 
     /tmp/ccEXyffT.s:605    .text:0000000000000384 .L0 
     /tmp/ccEXyffT.s:608    .text:0000000000000388 .L0 
     /tmp/ccEXyffT.s:612    .text:000000000000038c .L0 
     /tmp/ccEXyffT.s:614    .text:000000000000038c .L0 
     /tmp/ccEXyffT.s:615    .text:000000000000038c .L0 
     /tmp/ccEXyffT.s:617    .text:0000000000000390 .L0 
     /tmp/ccEXyffT.s:624    .text:000000000000039c .L0 
     /tmp/ccEXyffT.s:625    .text:000000000000039c .L0 
     /tmp/ccEXyffT.s:627    .text:00000000000003a0 .L0 
     /tmp/ccEXyffT.s:630    .text:00000000000003a4 .L0 
GAS LISTING /tmp/ccEXyffT.s 			page 24


     /tmp/ccEXyffT.s:632    .text:00000000000003a8 .L0 
     /tmp/ccEXyffT.s:635    .text:00000000000003ac .L0 
     /tmp/ccEXyffT.s:636    .text:00000000000003ac .L0 
     /tmp/ccEXyffT.s:638    .text:00000000000003b0 .L0 
     /tmp/ccEXyffT.s:639    .text:00000000000003b0 .L0 
     /tmp/ccEXyffT.s:641    .text:00000000000003b4 .L0 
     /tmp/ccEXyffT.s:642    .text:00000000000003b4 .L0 
     /tmp/ccEXyffT.s:644    .text:00000000000003b8 .L0 
     /tmp/ccEXyffT.s:646    .text:00000000000003bc .L0 
     /tmp/ccEXyffT.s:647    .text:00000000000003bc .L0 
     /tmp/ccEXyffT.s:650    .text:00000000000003c0 .L0 
     /tmp/ccEXyffT.s:651    .text:00000000000003c0 .L0 
     /tmp/ccEXyffT.s:655    .text:00000000000003c8 .L0 
     /tmp/ccEXyffT.s:656    .text:00000000000003c8 .L0 
     /tmp/ccEXyffT.s:657    .text:00000000000003c8 .L0 
     /tmp/ccEXyffT.s:658    .text:00000000000003c8 .L0 
     /tmp/ccEXyffT.s:662    .text:00000000000003c8 .L0 
     /tmp/ccEXyffT.s:665    .text:00000000000003cc .L0 
     /tmp/ccEXyffT.s:668    .text:00000000000003d0 .L0 
     /tmp/ccEXyffT.s:669    .text:00000000000003d0 .L0 
     /tmp/ccEXyffT.s:670    .text:00000000000003d0 .L0 
     /tmp/ccEXyffT.s:671    .text:00000000000003d0 .L0 
     /tmp/ccEXyffT.s:673    .text:00000000000003d0 .L0 
     /tmp/ccEXyffT.s:681    .text:00000000000003e0 .L0 
     /tmp/ccEXyffT.s:687    .text:00000000000003e8 .L0 
     /tmp/ccEXyffT.s:689    .text:00000000000003f0 .L0 
     /tmp/ccEXyffT.s:703    .bss:0000000000000008 _ZN15MemoryAllocator9allocHeadE
     /tmp/ccEXyffT.s:699    .bss:0000000000000000 _ZN15MemoryAllocator8freeHeadE
     /tmp/ccEXyffT.s:696    .bss:0000000000000000 .LANCHOR0
     /tmp/ccEXyffT.s:709    .text:00000000000003f0 .L0 
     /tmp/ccEXyffT.s:22     .text:000000000000000c .L0 
     /tmp/ccEXyffT.s:30     .text:0000000000000020 .L0 
     /tmp/ccEXyffT.s:34     .text:000000000000002c .L0 
     /tmp/ccEXyffT.s:84     .text:000000000000007c .L0 
     /tmp/ccEXyffT.s:90     .text:0000000000000088 .L0 
     /tmp/ccEXyffT.s:92     .text:0000000000000094 .L0 
     /tmp/ccEXyffT.s:139    .text:00000000000000d8 .L0 
     /tmp/ccEXyffT.s:147    .text:00000000000000e4 .L0 
     /tmp/ccEXyffT.s:249    .text:000000000000015c .L0 
     /tmp/ccEXyffT.s:269    .text:000000000000017c .L0 
     /tmp/ccEXyffT.s:474    .text:00000000000002a8 .L0 
     /tmp/ccEXyffT.s:479    .text:00000000000002b8 .L0 
     /tmp/ccEXyffT.s:489    .text:00000000000002cc .L0 
     /tmp/ccEXyffT.s:554    .text:000000000000032c .L0 
     /tmp/ccEXyffT.s:568    .text:0000000000000344 .L0 
     /tmp/ccEXyffT.s:577    .text:0000000000000354 .L0 
     /tmp/ccEXyffT.s:617    .text:0000000000000390 .L0 
     /tmp/ccEXyffT.s:321    .text:00000000000001c0 .L21
     /tmp/ccEXyffT.s:276    .text:0000000000000188 .L3
     /tmp/ccEXyffT.s:329    .text:00000000000001c8 .L22
     /tmp/ccEXyffT.s:159    .text:00000000000000f4 .L14
     /tmp/ccEXyffT.s:134    .text:00000000000000d4 .L8
     /tmp/ccEXyffT.s:226    .text:000000000000014c .L10
     /tmp/ccEXyffT.s:121    .text:00000000000000c0 .L9
     /tmp/ccEXyffT.s:212    .text:000000000000013c .L12
     /tmp/ccEXyffT.s:240    .text:0000000000000158 .L5
     /tmp/ccEXyffT.s:150    .text:00000000000000f0 .L6
GAS LISTING /tmp/ccEXyffT.s 			page 25


     /tmp/ccEXyffT.s:105    .text:00000000000000b0 .L24
     /tmp/ccEXyffT.s:143    .text:00000000000000e4 .L11
     /tmp/ccEXyffT.s:221    .text:0000000000000148 .L13
     /tmp/ccEXyffT.s:254    .text:000000000000016c .L15
     /tmp/ccEXyffT.s:286    .text:0000000000000194 .L16
     /tmp/ccEXyffT.s:266    .text:000000000000017c .L17
     /tmp/ccEXyffT.s:300    .text:00000000000001a4 .L19
     /tmp/ccEXyffT.s:315    .text:00000000000001b8 .L20
     /tmp/ccEXyffT.s:270    .text:0000000000000184 .L18
     /tmp/ccEXyffT.s:395    .text:0000000000000230 .L25
     /tmp/ccEXyffT.s:375    .text:000000000000020c .L27
     /tmp/ccEXyffT.s:404    .text:000000000000023c .L29
     /tmp/ccEXyffT.s:424    .text:0000000000000260 .L30
     /tmp/ccEXyffT.s:654    .text:00000000000003c8 .L45
     /tmp/ccEXyffT.s:667    .text:00000000000003d0 .L46
     /tmp/ccEXyffT.s:675    .text:00000000000003d8 .L47
     /tmp/ccEXyffT.s:502    .text:00000000000002e4 .L35
     /tmp/ccEXyffT.s:596    .text:0000000000000378 .L32
     /tmp/ccEXyffT.s:517    .text:00000000000002fc .L49
     /tmp/ccEXyffT.s:497    .text:00000000000002e0 .L34
     /tmp/ccEXyffT.s:521    .text:0000000000000300 .L33
     /tmp/ccEXyffT.s:679    .text:00000000000003e0 .L51
     /tmp/ccEXyffT.s:611    .text:000000000000038c .L36
     /tmp/ccEXyffT.s:546    .text:0000000000000324 .L38
     /tmp/ccEXyffT.s:559    .text:000000000000033c .L39
     /tmp/ccEXyffT.s:619    .text:000000000000039c .L40
     /tmp/ccEXyffT.s:574    .text:0000000000000354 .L41
     /tmp/ccEXyffT.s:685    .text:00000000000003e8 .L52
     /tmp/ccEXyffT.s:535    .text:0000000000000314 .L37
     /tmp/ccEXyffT.s:633    .text:00000000000003ac .L43
     /tmp/ccEXyffT.s:648    .text:00000000000003c0 .L44
     /tmp/ccEXyffT.s:578    .text:000000000000035c .L42
     /tmp/ccEXyffT.s:1141   .debug_abbrev:0000000000000000 .Ldebug_abbrev0
     /tmp/ccEXyffT.s:1992   .debug_str:000000000000014f .LASF42
     /tmp/ccEXyffT.s:2012   .debug_str:00000000000002dd .LASF43
     /tmp/ccEXyffT.s:1998   .debug_str:0000000000000238 .LASF44
     /tmp/ccEXyffT.s:5      .text:0000000000000000 .Ltext0
     /tmp/ccEXyffT.s:706    .text:00000000000003f0 .Letext0
     /tmp/ccEXyffT.s:1942   .debug_line:0000000000000000 .Ldebug_line0
     /tmp/ccEXyffT.s:2002   .debug_str:0000000000000288 .LASF0
     /tmp/ccEXyffT.s:1986   .debug_str:0000000000000124 .LASF1
     /tmp/ccEXyffT.s:1980   .debug_str:00000000000000ff .LASF2
     /tmp/ccEXyffT.s:1956   .debug_str:000000000000005d .LASF4
     /tmp/ccEXyffT.s:1984   .debug_str:0000000000000112 .LASF3
     /tmp/ccEXyffT.s:1948   .debug_str:0000000000000023 .LASF5
     /tmp/ccEXyffT.s:1944   .debug_str:0000000000000000 .LASF6
     /tmp/ccEXyffT.s:1972   .debug_str:00000000000000b6 .LASF7
     /tmp/ccEXyffT.s:2006   .debug_str:000000000000029b .LASF8
     /tmp/ccEXyffT.s:1954   .debug_str:000000000000004f .LASF9
     /tmp/ccEXyffT.s:2040   .debug_str:0000000000000397 .LASF10
     /tmp/ccEXyffT.s:1976   .debug_str:00000000000000cf .LASF11
     /tmp/ccEXyffT.s:2028   .debug_str:000000000000035d .LASF12
     /tmp/ccEXyffT.s:2014   .debug_str:00000000000002f5 .LASF13
     /tmp/ccEXyffT.s:1988   .debug_str:0000000000000137 .LASF14
     /tmp/ccEXyffT.s:1966   .debug_str:000000000000007c .LASF15
     /tmp/ccEXyffT.s:2008   .debug_str:00000000000002ab .LASF16
     /tmp/ccEXyffT.s:1996   .debug_str:000000000000022c .LASF45
GAS LISTING /tmp/ccEXyffT.s 			page 26


     /tmp/ccEXyffT.s:2036   .debug_str:000000000000038d .LASF17
     /tmp/ccEXyffT.s:1950   .debug_str:000000000000002a .LASF18
     /tmp/ccEXyffT.s:2038   .debug_str:0000000000000392 .LASF19
     /tmp/ccEXyffT.s:2020   .debug_str:000000000000031c .LASF20
     /tmp/ccEXyffT.s:1958   .debug_str:0000000000000064 .LASF21
     /tmp/ccEXyffT.s:1946   .debug_str:0000000000000013 .LASF28
     /tmp/ccEXyffT.s:1994   .debug_str:0000000000000213 .LASF30
     /tmp/ccEXyffT.s:1960   .debug_str:0000000000000069 .LASF22
     /tmp/ccEXyffT.s:2034   .debug_str:0000000000000383 .LASF23
     /tmp/ccEXyffT.s:1964   .debug_str:0000000000000077 .LASF46
     /tmp/ccEXyffT.s:2010   .debug_str:00000000000002c1 .LASF47
     /tmp/ccEXyffT.s:2032   .debug_str:0000000000000379 .LASF24
     /tmp/ccEXyffT.s:2024   .debug_str:0000000000000332 .LASF26
     /tmp/ccEXyffT.s:2016   .debug_str:0000000000000305 .LASF25
     /tmp/ccEXyffT.s:1978   .debug_str:00000000000000de .LASF27
     /tmp/ccEXyffT.s:2026   .debug_str:0000000000000353 .LASF29
     /tmp/ccEXyffT.s:2000   .debug_str:000000000000025a .LASF31
     /tmp/ccEXyffT.s:2018   .debug_str:000000000000030e .LASF48
     /tmp/ccEXyffT.s:1968   .debug_str:0000000000000092 .LASF32
     /tmp/ccEXyffT.s:1952   .debug_str:000000000000002f .LASF33
     /tmp/ccEXyffT.s:340    .text:00000000000001d0 .LFB6
     /tmp/ccEXyffT.s:448    .text:000000000000028c .LFE6
     /tmp/ccEXyffT.s:1974   .debug_str:00000000000000c9 .LASF34
     /tmp/ccEXyffT.s:454    .text:000000000000028c .LFB5
     /tmp/ccEXyffT.s:690    .text:00000000000003f0 .LFE5
     /tmp/ccEXyffT.s:1970   .debug_str:00000000000000b1 .LASF35
     /tmp/ccEXyffT.s:1679   .debug_loc:0000000000000000 .LLST7
     /tmp/ccEXyffT.s:1716   .debug_loc:000000000000009b .LLST8
     /tmp/ccEXyffT.s:1990   .debug_str:0000000000000143 .LASF36
     /tmp/ccEXyffT.s:1753   .debug_loc:0000000000000136 .LLST9
     /tmp/ccEXyffT.s:1764   .debug_loc:000000000000016c .LLST10
     /tmp/ccEXyffT.s:622    .text:000000000000039c .LBB16
     /tmp/ccEXyffT.s:659    .text:00000000000003c8 .LBE16
     /tmp/ccEXyffT.s:1962   .debug_str:0000000000000072 .LASF37
     /tmp/ccEXyffT.s:1775   .debug_loc:00000000000001a2 .LLST11
     /tmp/ccEXyffT.s:583    .text:0000000000000364 .LVL32
     /tmp/ccEXyffT.s:592    .text:0000000000000374 .LVL33
     /tmp/ccEXyffT.s:70     .text:0000000000000068 .LFB4
     /tmp/ccEXyffT.s:334    .text:00000000000001d0 .LFE4
     /tmp/ccEXyffT.s:1786   .debug_loc:00000000000001d8 .LLST1
     /tmp/ccEXyffT.s:2030   .debug_str:000000000000036d .LASF38
     /tmp/ccEXyffT.s:1845   .debug_loc:00000000000002c5 .LLST2
     /tmp/ccEXyffT.s:1856   .debug_loc:00000000000002fb .LLST3
     /tmp/ccEXyffT.s:2022   .debug_str:0000000000000323 .LASF39
     /tmp/ccEXyffT.s:1867   .debug_loc:0000000000000331 .LLST4
     /tmp/ccEXyffT.s:1934   .debug_ranges:0000000000000000 .Ldebug_ranges0
     /tmp/ccEXyffT.s:1982   .debug_str:000000000000010d .LASF40
     /tmp/ccEXyffT.s:1892   .debug_loc:00000000000003a2 .LLST5
     /tmp/ccEXyffT.s:289    .text:0000000000000194 .LBB13
     /tmp/ccEXyffT.s:322    .text:00000000000001c0 .LBE13
     /tmp/ccEXyffT.s:1903   .debug_loc:00000000000003d8 .LLST6
     /tmp/ccEXyffT.s:10     .text:0000000000000000 .LFB3
     /tmp/ccEXyffT.s:64     .text:0000000000000068 .LFE3
     /tmp/ccEXyffT.s:2004   .debug_str:0000000000000295 .LASF41
     /tmp/ccEXyffT.s:1914   .debug_loc:000000000000040e .LLST0
     /tmp/ccEXyffT.s:457    .text:000000000000028c .LVL23
     /tmp/ccEXyffT.s:486    .text:00000000000002cc .LVL24
GAS LISTING /tmp/ccEXyffT.s 			page 27


     /tmp/ccEXyffT.s:606    .text:0000000000000384 .LVL35
     /tmp/ccEXyffT.s:610    .text:000000000000038c .LVL36
     /tmp/ccEXyffT.s:653    .text:00000000000003c8 .LVL39
     /tmp/ccEXyffT.s:663    .text:00000000000003cc .LVL40
     /tmp/ccEXyffT.s:666    .text:00000000000003d0 .LVL41
     /tmp/ccEXyffT.s:494    .text:00000000000002dc .LVL25
     /tmp/ccEXyffT.s:496    .text:00000000000002e0 .LVL26
     /tmp/ccEXyffT.s:595    .text:0000000000000378 .LVL34
     /tmp/ccEXyffT.s:678    .text:00000000000003e0 .LVL42
     /tmp/ccEXyffT.s:682    .text:00000000000003e4 .LVL43
     /tmp/ccEXyffT.s:520    .text:0000000000000300 .LVL30
     /tmp/ccEXyffT.s:527    .text:0000000000000308 .LVL31
     /tmp/ccEXyffT.s:684    .text:00000000000003e8 .LVL44
     /tmp/ccEXyffT.s:514    .text:00000000000002f8 .LVL28
     /tmp/ccEXyffT.s:516    .text:00000000000002fc .LVL29
     /tmp/ccEXyffT.s:620    .text:000000000000039c .LVL37
     /tmp/ccEXyffT.s:628    .text:00000000000003a4 .LVL38
     /tmp/ccEXyffT.s:73     .text:0000000000000068 .LVL2
     /tmp/ccEXyffT.s:85     .text:0000000000000084 .LVL3
     /tmp/ccEXyffT.s:118    .text:00000000000000bc .LVL6
     /tmp/ccEXyffT.s:133    .text:00000000000000d4 .LVL7
     /tmp/ccEXyffT.s:140    .text:00000000000000e0 .LVL8
     /tmp/ccEXyffT.s:142    .text:00000000000000e4 .LVL9
     /tmp/ccEXyffT.s:225    .text:000000000000014c .LVL14
     /tmp/ccEXyffT.s:275    .text:0000000000000188 .LVL16
     /tmp/ccEXyffT.s:320    .text:00000000000001c0 .LVL19
     /tmp/ccEXyffT.s:326    .text:00000000000001c4 .LVL20
     /tmp/ccEXyffT.s:328    .text:00000000000001c8 .LVL21
     /tmp/ccEXyffT.s:100    .text:00000000000000ac .LVL4
     /tmp/ccEXyffT.s:285    .text:0000000000000194 .LVL17
     /tmp/ccEXyffT.s:104    .text:00000000000000b0 .LVL5
     /tmp/ccEXyffT.s:149    .text:00000000000000f0 .LVL10
     /tmp/ccEXyffT.s:177    .text:0000000000000108 .LVL12
     /tmp/ccEXyffT.s:187    .text:0000000000000114 .LVL13
     /tmp/ccEXyffT.s:295    .text:000000000000019c .LVL18
     /tmp/ccEXyffT.s:27     .text:0000000000000020 .LVL0
     /tmp/ccEXyffT.s:46     .text:000000000000004c .LVL1
     /tmp/ccEXyffT.s:710    .debug_info:0000000000000000 .Ldebug_info0
     /tmp/ccEXyffT.s:144    .text:00000000000000e4 .LBB6
     /tmp/ccEXyffT.s:151    .text:00000000000000f0 .LBE6
     /tmp/ccEXyffT.s:181    .text:000000000000010c .LBB7
     /tmp/ccEXyffT.s:227    .text:000000000000014c .LBE7

UNDEFINED SYMBOLS
HEAP_START_ADDR
HEAP_END_ADDR
