GAS LISTING /tmp/ccV0SFs6.s 			page 1


   1              		.file	"Riscv.cpp"
   2              		.option pic
   3              		.option norelax
   4              		.text
   5              	.Ltext0:
   6              		.align	2
   7              		.globl	_ZN5Riscv10popSppSpieEv
   9              	_ZN5Riscv10popSppSpieEv:
  10              	.LFB43:
  11              		.file 1 "src/Riscv.cpp"
   1:src/Riscv.cpp **** #include "../h/Riscv.hpp"
   2:src/Riscv.cpp **** 
   3:src/Riscv.cpp **** void Riscv::popSppSpie(){
  12              		.loc 1 3 25
  13              		.cfi_startproc
  14 0000 130101FF 		addi	sp,sp,-16
  15              		.cfi_def_cfa_offset 16
  16 0004 23348100 		sd	s0,8(sp)
  17              		.cfi_offset 8, -8
  18 0008 13040101 		addi	s0,sp,16
  19              		.cfi_def_cfa 8, 0
   4:src/Riscv.cpp ****     if (TCB::isBodyNull()) //da li je kernel nit
  20              		.loc 1 4 5
  21              	.LBB35:
  22              	.LBB36:
  23              		.file 2 "src/../h/TCB.hpp"
   1:src/../h/TCB.hpp **** #ifndef TCB_H
   2:src/../h/TCB.hpp **** #define TCB_H
   3:src/../h/TCB.hpp **** 
   4:src/../h/TCB.hpp **** #include "../lib/hw.h"
   5:src/../h/TCB.hpp **** #include "list.hpp"
   6:src/../h/TCB.hpp **** #include "Scheduler.hpp"
   7:src/../h/TCB.hpp **** #include "MemoryAllocator.hpp"
   8:src/../h/TCB.hpp **** #include "Riscv.hpp"
   9:src/../h/TCB.hpp **** 
  10:src/../h/TCB.hpp **** class TCB{
  11:src/../h/TCB.hpp **** public:
  12:src/../h/TCB.hpp ****     using Body = void(*)(void*);
  13:src/../h/TCB.hpp **** 
  14:src/../h/TCB.hpp **** 	//overwrite new i delete
  15:src/../h/TCB.hpp ****     void *operator new(size_t size){
  16:src/../h/TCB.hpp ****       return MemoryAllocator::mem_alloc((size + MEM_BLOCK_SIZE-1)/MEM_BLOCK_SIZE);
  17:src/../h/TCB.hpp ****     }
  18:src/../h/TCB.hpp ****     void operator delete(void* el) noexcept{
  19:src/../h/TCB.hpp ****       MemoryAllocator::mem_free(el);
  20:src/../h/TCB.hpp ****     }
  21:src/../h/TCB.hpp ****     void *operator new[](size_t size){
  22:src/../h/TCB.hpp ****       return MemoryAllocator::mem_alloc((size + MEM_BLOCK_SIZE-1)/MEM_BLOCK_SIZE);
  23:src/../h/TCB.hpp ****     }
  24:src/../h/TCB.hpp ****     void operator delete[](void* el) noexcept{
  25:src/../h/TCB.hpp ****        MemoryAllocator::mem_free(el);
  26:src/../h/TCB.hpp ****     }
  27:src/../h/TCB.hpp **** 
  28:src/../h/TCB.hpp ****     //destruktor
  29:src/../h/TCB.hpp ****     ~TCB(){
  30:src/../h/TCB.hpp ****       MemoryAllocator::mem_free(stack);
  31:src/../h/TCB.hpp ****     }
GAS LISTING /tmp/ccV0SFs6.s 			page 2


  32:src/../h/TCB.hpp **** 
  33:src/../h/TCB.hpp **** 	//konstruktor
  34:src/../h/TCB.hpp **** 	explicit TCB(Body body, void* arg, uint64* stack_space) :
  35:src/../h/TCB.hpp **** 		body(body),
  36:src/../h/TCB.hpp **** 		finished(false),
  37:src/../h/TCB.hpp **** 		blocked(false)
  38:src/../h/TCB.hpp **** 	{
  39:src/../h/TCB.hpp ****         stack = stack_space != nullptr ? stack_space : nullptr;
  40:src/../h/TCB.hpp ****         context.ra = (uint64)&wrapper; //postavi wrapper kao pocetnu tacku
  41:src/../h/TCB.hpp ****         context.sp = (uint64)&stack[DEFAULT_STACK_SIZE/sizeof(uint64)];
  42:src/../h/TCB.hpp ****         this->arg = arg;
  43:src/../h/TCB.hpp ****         if(body != nullptr) {Scheduler::put(this);}
  44:src/../h/TCB.hpp ****     }
  45:src/../h/TCB.hpp **** 
  46:src/../h/TCB.hpp **** 	//getteri i setteri
  47:src/../h/TCB.hpp ****     bool isFinished() const{ return finished; }
  48:src/../h/TCB.hpp ****     void setFinished(bool value){ finished = value; }
  49:src/../h/TCB.hpp **** 
  50:src/../h/TCB.hpp ****     bool isBlocked() const{ return blocked; }
  51:src/../h/TCB.hpp ****     void setBlocked(bool value){ blocked = value; }
  52:src/../h/TCB.hpp **** 
  53:src/../h/TCB.hpp **** 	static bool isBodyNull(){return running->body == nullptr;}
  24              		.loc 2 53 27
  25              		.loc 2 53 43 is_stmt 0
  26 000c 97070000 		la	a5,_ZN3TCB7runningE
  26      83B70700 
  27 0014 83B70700 		ld	a5,0(a5)
  28 0018 83B70700 		ld	a5,0(a5)
  29              	.LBE36:
  30              	.LBE35:
  31              		.loc 1 4 5
  32 001c 63800702 		beqz	a5,.L5
   5:src/Riscv.cpp ****         ms_sstatus(SSTATUS_SPP); //supervisor mod, 1
   6:src/Riscv.cpp ****     else
   7:src/Riscv.cpp ****         mc_sstatus(SSTATUS_SPP); //user mod, 0
  33              		.loc 1 7 9 is_stmt 1
  34              	.LVL0:
  35              	.LBB37:
  36              	.LBB38:
  37              		.file 3 "src/../h/Riscv.hpp"
   1:src/../h/Riscv.hpp **** #ifndef RISCV_H
   2:src/../h/Riscv.hpp **** #define RISCV_H
   3:src/../h/Riscv.hpp **** 
   4:src/../h/Riscv.hpp **** #include "../lib/hw.h"
   5:src/../h/Riscv.hpp **** #include "MemoryAllocator.hpp"
   6:src/../h/Riscv.hpp **** #include "TCB.hpp"
   7:src/../h/Riscv.hpp **** #include "SemaphoreC.hpp"
   8:src/../h/Riscv.hpp **** #include "../lib/console.h"
   9:src/../h/Riscv.hpp **** #include "../test/printing.hpp"
  10:src/../h/Riscv.hpp **** 
  11:src/../h/Riscv.hpp **** 
  12:src/../h/Riscv.hpp **** enum Interrupts{ // BNT | vrednost
  13:src/../h/Riscv.hpp ****     ECALL_USER = 0x00UL  | 0x08, //ecall iz korisnickog rezima 0000000000000008
  14:src/../h/Riscv.hpp ****     ECALL_SUPERVISOR = 0x00UL  | 0x09, //ecall iz sistemskog rezima 0000000000000009
  15:src/../h/Riscv.hpp ****     ILLEGAL_INSTRUCTION = 0x00UL  | 0x02, //ilegalna instrukcija
  16:src/../h/Riscv.hpp ****     STORE_ACCESS_FAULT = 0x00UL  | 0x05, //nedozvoljena adresa citanja
  17:src/../h/Riscv.hpp ****     LOAD_ACCESS_FAULT = 0x00UL  | 0x07, //nedozvoljena adresa upisa
GAS LISTING /tmp/ccV0SFs6.s 			page 3


  18:src/../h/Riscv.hpp ****     TIMER = 0x01UL << 63 | 0x1,
  19:src/../h/Riscv.hpp ****     CONSOLE_RISCV = 0x01UL << 63 | 0x9
  20:src/../h/Riscv.hpp ****  };
  21:src/../h/Riscv.hpp **** 
  22:src/../h/Riscv.hpp **** 
  23:src/../h/Riscv.hpp **** class Riscv {
  24:src/../h/Riscv.hpp **** public:
  25:src/../h/Riscv.hpp **** 
  26:src/../h/Riscv.hpp ****   static void handleSupervisorTrap();
  27:src/../h/Riscv.hpp ****   static void supervisorTrap();
  28:src/../h/Riscv.hpp ****   static void popSppSpie();
  29:src/../h/Riscv.hpp **** 
  30:src/../h/Riscv.hpp **** //opis razloga prelaska u sistemski rezim
  31:src/../h/Riscv.hpp ****   static uint64 r_scause();
  32:src/../h/Riscv.hpp ****   static void w_scause(uint64 scause);
  33:src/../h/Riscv.hpp **** 
  34:src/../h/Riscv.hpp **** //sacuvana vrednost registra pc u korisnickom rezimu
  35:src/../h/Riscv.hpp ****   static uint64 r_sepc();
  36:src/../h/Riscv.hpp ****   static void w_sepc(uint64 sepc);
  37:src/../h/Riscv.hpp **** 
  38:src/../h/Riscv.hpp **** //adresa prekinute rutine poravnata na 4 bajta
  39:src/../h/Riscv.hpp ****   static uint64 r_stvec();
  40:src/../h/Riscv.hpp ****   static void w_stvec(uint64 stvec);
  41:src/../h/Riscv.hpp **** 
  42:src/../h/Riscv.hpp **** //supervison trap value
  43:src/../h/Riscv.hpp ****   static uint64 r_stval();
  44:src/../h/Riscv.hpp ****   static void w_stval(uint64 stval);
  45:src/../h/Riscv.hpp **** 
  46:src/../h/Riscv.hpp **** //sip supervisor interupt pending
  47:src/../h/Riscv.hpp **** //sie supervisor interupt enable
  48:src/../h/Riscv.hpp **** 
  49:src/../h/Riscv.hpp ****   enum BitMaskSstatus{
  50:src/../h/Riscv.hpp ****     SSTATUS_SPP=(1UL<<8),
  51:src/../h/Riscv.hpp ****     SSTATUS_SIE=(1UL<<1),
  52:src/../h/Riscv.hpp ****     SSTATUS_SPIE=(1UL<<5)
  53:src/../h/Riscv.hpp ****   };
  54:src/../h/Riscv.hpp **** 
  55:src/../h/Riscv.hpp ****   enum BitMaskSip: uint64 {
  56:src/../h/Riscv.hpp ****     SIP_SSIP=(1UL<<1),
  57:src/../h/Riscv.hpp ****     SIP_SEIP=(1UL<<9)
  58:src/../h/Riscv.hpp ****   };
  59:src/../h/Riscv.hpp **** 
  60:src/../h/Riscv.hpp ****   static void ms_sip(uint64 mask); //mask set
  61:src/../h/Riscv.hpp ****   static void mc_sip(uint64 mask); //mask clear
  62:src/../h/Riscv.hpp ****   static uint64 r_sip(); //read
  63:src/../h/Riscv.hpp ****   static void w_sip(uint64 sip); //write
  64:src/../h/Riscv.hpp **** 
  65:src/../h/Riscv.hpp ****   static void ms_sstatus(uint64 mask);
  66:src/../h/Riscv.hpp ****   static void mc_sstatus(uint64 mask);
  67:src/../h/Riscv.hpp ****   static uint64 r_sstatus();
  68:src/../h/Riscv.hpp ****   static void w_sstatus(uint64 sip);
  69:src/../h/Riscv.hpp **** 
  70:src/../h/Riscv.hpp **** };
  71:src/../h/Riscv.hpp **** 
  72:src/../h/Riscv.hpp **** inline uint64 Riscv::r_scause(){
  73:src/../h/Riscv.hpp ****   uint64 volatile scause;
  74:src/../h/Riscv.hpp ****   __asm__ volatile("csrr %[scause], scause" : [scause] "=r" (scause));
GAS LISTING /tmp/ccV0SFs6.s 			page 4


  75:src/../h/Riscv.hpp ****   return scause;
  76:src/../h/Riscv.hpp **** }
  77:src/../h/Riscv.hpp **** 
  78:src/../h/Riscv.hpp **** inline void Riscv::w_scause(uint64 scause){
  79:src/../h/Riscv.hpp ****   __asm__ volatile("csrw scause, %[scause]" : : [scause] "r" (scause));
  80:src/../h/Riscv.hpp **** }
  81:src/../h/Riscv.hpp **** 
  82:src/../h/Riscv.hpp **** inline uint64 Riscv::r_sepc(){
  83:src/../h/Riscv.hpp ****   uint64 volatile sepc;
  84:src/../h/Riscv.hpp ****   __asm__ volatile("csrr %[sepc], sepc" : [sepc] "=r" (sepc));
  85:src/../h/Riscv.hpp ****   return sepc;
  86:src/../h/Riscv.hpp **** }
  87:src/../h/Riscv.hpp **** 
  88:src/../h/Riscv.hpp **** inline void Riscv::w_sepc(uint64 sepc){
  89:src/../h/Riscv.hpp ****   __asm__ volatile("csrw sepc, %[sepc]" : : [sepc] "r" (sepc));
  90:src/../h/Riscv.hpp **** }
  91:src/../h/Riscv.hpp **** 
  92:src/../h/Riscv.hpp **** inline uint64 Riscv::r_stvec(){
  93:src/../h/Riscv.hpp ****   uint64 volatile stvec;
  94:src/../h/Riscv.hpp ****   __asm__ volatile("csrr %[stvec], stvec" : [stvec] "=r" (stvec));
  95:src/../h/Riscv.hpp ****   return stvec;
  96:src/../h/Riscv.hpp **** }
  97:src/../h/Riscv.hpp **** 
  98:src/../h/Riscv.hpp **** inline void Riscv::w_stvec(uint64 stvec){
  99:src/../h/Riscv.hpp ****   __asm__ volatile("csrw stvec, %[stvec]" : : [stvec] "r" (stvec));
 100:src/../h/Riscv.hpp **** }
 101:src/../h/Riscv.hpp **** 
 102:src/../h/Riscv.hpp **** inline uint64 Riscv::r_stval(){
 103:src/../h/Riscv.hpp ****   uint64 volatile stval;
 104:src/../h/Riscv.hpp ****   __asm__ volatile("csrr %[stval], stval" : [stval] "=r" (stval));
 105:src/../h/Riscv.hpp ****   return stval;
 106:src/../h/Riscv.hpp **** }
 107:src/../h/Riscv.hpp **** 
 108:src/../h/Riscv.hpp **** inline void Riscv::w_stval(uint64 stval){
 109:src/../h/Riscv.hpp ****   __asm__ volatile("csrw stval, %[stval]" : : [stval] "r" (stval));
 110:src/../h/Riscv.hpp **** }
 111:src/../h/Riscv.hpp **** 
 112:src/../h/Riscv.hpp **** inline void Riscv::ms_sip(uint64 mask){
 113:src/../h/Riscv.hpp ****   __asm__ volatile("csrs sip, %[mask]" : : [mask] "r" (mask));
 114:src/../h/Riscv.hpp **** }
 115:src/../h/Riscv.hpp **** 
 116:src/../h/Riscv.hpp **** inline void Riscv::mc_sip(uint64 mask){
 117:src/../h/Riscv.hpp ****   __asm__ volatile("csrc sip, %[mask]" : : [mask] "r" (mask));
 118:src/../h/Riscv.hpp ****  }
 119:src/../h/Riscv.hpp **** 
 120:src/../h/Riscv.hpp **** inline uint64 Riscv::r_sip(){
 121:src/../h/Riscv.hpp ****   uint64 volatile sip;
 122:src/../h/Riscv.hpp ****   __asm__ volatile("csrr %[sip], sip" : [sip] "=r" (sip));
 123:src/../h/Riscv.hpp ****   return sip;
 124:src/../h/Riscv.hpp **** }
 125:src/../h/Riscv.hpp **** 
 126:src/../h/Riscv.hpp **** inline void Riscv::w_sip(uint64 sip){
 127:src/../h/Riscv.hpp ****   __asm__ volatile("csrw sip, %[sip]" : : [sip] "r" (sip));
 128:src/../h/Riscv.hpp **** }
 129:src/../h/Riscv.hpp **** 
 130:src/../h/Riscv.hpp **** inline void Riscv::ms_sstatus(uint64 mask){
 131:src/../h/Riscv.hpp ****   __asm__ volatile("csrs sstatus, %[mask]" : : [mask] "r" (mask));
GAS LISTING /tmp/ccV0SFs6.s 			page 5


 132:src/../h/Riscv.hpp **** }
 133:src/../h/Riscv.hpp **** 
 134:src/../h/Riscv.hpp **** inline void Riscv::mc_sstatus(uint64 mask){
 135:src/../h/Riscv.hpp ****   __asm__ volatile("csrc sstatus, %[mask]" : : [mask] "r" (mask));
  38              		.loc 3 135 3
  39              		.loc 3 135 66 is_stmt 0
  40 0020 93070010 		li	a5,256
  41              	#APP
  42              	# 135 "src/../h/Riscv.hpp" 1
 136              	}
  43              		csrc sstatus, a5
  44              	# 0 "" 2
  45              	.LVL1:
  46              	#NO_APP
  47              	.L3:
  48              	.LBE38:
  49              	.LBE37:
   8:src/Riscv.cpp ****     __asm__ volatile ("csrw sepc, ra");
  50              		.loc 1 8 5 is_stmt 1
  51              		.loc 1 8 39 is_stmt 0
  52              	#APP
  53              	# 8 "src/Riscv.cpp" 1
   9              	    __asm__ volatile ("sret");
  54              		csrw sepc, ra
  55              	# 0 "" 2
  56              		.loc 1 9 5 is_stmt 1
  57              		.loc 1 9 30 is_stmt 0
  58              	# 9 "src/Riscv.cpp" 1
  10              	}
  59              		sret
  60              	# 0 "" 2
  61              		.loc 1 10 1
  62              	#NO_APP
  63 0030 03348100 		ld	s0,8(sp)
  64              		.cfi_remember_state
  65              		.cfi_restore 8
  66              		.cfi_def_cfa 2, 16
  67 0034 13010101 		addi	sp,sp,16
  68              		.cfi_def_cfa_offset 0
  69 0038 67800000 		jr	ra
  70              	.L5:
  71              		.cfi_restore_state
   5:src/Riscv.cpp ****         ms_sstatus(SSTATUS_SPP); //supervisor mod, 1
  72              		.loc 1 5 9 is_stmt 1
  73              	.LVL2:
  74              	.LBB39:
  75              	.LBB40:
 131:src/../h/Riscv.hpp **** }
  76              		.loc 3 131 3
 131:src/../h/Riscv.hpp **** }
  77              		.loc 3 131 66 is_stmt 0
  78 003c 93070010 		li	a5,256
  79              	#APP
  80              	# 131 "src/../h/Riscv.hpp" 1
 132:src/../h/Riscv.hpp **** 
  81              		csrs sstatus, a5
  82              	# 0 "" 2
GAS LISTING /tmp/ccV0SFs6.s 			page 6


  83              		.loc 3 132 1
  84              	#NO_APP
  85 0044 6FF05FFE 		j	.L3
  86              	.LBE40:
  87              	.LBE39:
  88              		.cfi_endproc
  89              	.LFE43:
  91              		.section	.rodata.str1.8,"aMS",@progbits,1
  92              		.align	3
  93              	.LC0:
  94 0000 4E65646F 		.string	"Nedozvoljena adresa upisa"
  94      7A766F6C 
  94      6A656E61 
  94      20616472 
  94      65736120 
  95 001a 00000000 		.align	3
  95      0000
  96              	.LC1:
  97 0020 4E65646F 		.string	"Nedozvoljena adresa citanja"
  97      7A766F6C 
  97      6A656E61 
  97      20616472 
  97      65736120 
  98 003c 00000000 		.align	3
  99              	.LC2:
 100 0040 496C6567 		.string	"Ilegalna instrukcija"
 100      616C6E61 
 100      20696E73 
 100      7472756B 
 100      63696A61 
 101 0055 000000   		.align	3
 102              	.LC3:
 103 0058 4E656F62 		.string	"Neobradjena greska \n"
 103      7261646A 
 103      656E6120 
 103      67726573 
 103      6B61200A 
 104 006d 000000   		.align	3
 105              	.LC4:
 106 0070 53434155 		.string	"SCAUSE "
 106      53452000 
 107              		.align	3
 108              	.LC5:
 109 0078 0A00     		.string	"\n"
 110              		.text
 111              		.align	2
 112              		.globl	_ZN5Riscv20handleSupervisorTrapEv
 114              	_ZN5Riscv20handleSupervisorTrapEv:
 115              	.LFB44:
  11:src/Riscv.cpp **** 
  12:src/Riscv.cpp **** void Riscv::handleSupervisorTrap() {
 116              		.loc 1 12 36 is_stmt 1
 117              		.cfi_startproc
 118 0048 130101FB 		addi	sp,sp,-80
 119              		.cfi_def_cfa_offset 80
 120 004c 23341104 		sd	ra,72(sp)
 121 0050 23308104 		sd	s0,64(sp)
GAS LISTING /tmp/ccV0SFs6.s 			page 7


 122 0054 233C9102 		sd	s1,56(sp)
 123 0058 23382103 		sd	s2,48(sp)
 124              		.cfi_offset 1, -8
 125              		.cfi_offset 8, -16
 126              		.cfi_offset 9, -24
 127              		.cfi_offset 18, -32
 128 005c 13040105 		addi	s0,sp,80
 129              		.cfi_def_cfa 8, 0
  13:src/Riscv.cpp ****     uint64 scause = r_scause();
 130              		.loc 1 13 5
 131              	.LBB41:
 132              	.LBB42:
  73:src/../h/Riscv.hpp ****   __asm__ volatile("csrr %[scause], scause" : [scause] "=r" (scause));
 133              		.loc 3 73 3
  74:src/../h/Riscv.hpp ****   return scause;
 134              		.loc 3 74 3
  74:src/../h/Riscv.hpp ****   return scause;
 135              		.loc 3 74 70 is_stmt 0
 136              	#APP
 137              	# 74 "src/../h/Riscv.hpp" 1
 138              		csrr a5, scause
 139              	# 0 "" 2
 140              	#NO_APP
 141 0064 2334F4FC 		sd	a5,-56(s0)
  75:src/../h/Riscv.hpp **** }
 142              		.loc 3 75 3 is_stmt 1
  75:src/../h/Riscv.hpp **** }
 143              		.loc 3 75 10 is_stmt 0
 144 0068 833484FC 		ld	s1,-56(s0)
 145              	.LVL3:
 146              	.LBE42:
 147              	.LBE41:
  14:src/Riscv.cpp ****     if(scause == ECALL_USER || scause == ECALL_SUPERVISOR) {
 148              		.loc 1 14 5 is_stmt 1
 149              	.LBB43:
 150              		.loc 1 14 29 is_stmt 0
 151 006c 138784FF 		addi	a4,s1,-8
 152              		.loc 1 14 5
 153 0070 93071000 		li	a5,1
 154 0074 63F2E708 		bleu	a4,a5,.L34
  15:src/Riscv.cpp ****         uint64 volatile code;
  16:src/Riscv.cpp ****         __asm__ volatile("mv %0, a0": "=r"(code));
  17:src/Riscv.cpp **** 
  18:src/Riscv.cpp ****         uint64 volatile sepc = r_sepc() + 4;
  19:src/Riscv.cpp ****         uint64 volatile sstatus = r_sstatus();
  20:src/Riscv.cpp **** 
  21:src/Riscv.cpp ****         switch(code) {
  22:src/Riscv.cpp ****             //mem_alloc
  23:src/Riscv.cpp ****             case 0x01: {
  24:src/Riscv.cpp ****                 size_t size;
  25:src/Riscv.cpp ****                 __asm__ volatile("mv %0, a1": "=r"(size));
  26:src/Riscv.cpp ****                 void* mem = MemoryAllocator::mem_alloc(size);
  27:src/Riscv.cpp ****                 __asm__ volatile("mv a0, %0":: "r"(mem));
  28:src/Riscv.cpp ****                 __asm__ volatile("sd a0, 80(s0)");
  29:src/Riscv.cpp ****                 //s0 frame pointer, oblast steka od koje pocinje aktivacioni blok
  30:src/Riscv.cpp ****                 break;
  31:src/Riscv.cpp ****             }
GAS LISTING /tmp/ccV0SFs6.s 			page 8


  32:src/Riscv.cpp ****             //mem_free
  33:src/Riscv.cpp ****             case 0x02: {
  34:src/Riscv.cpp ****                 void* addr;
  35:src/Riscv.cpp ****                 __asm__ volatile("mv %0, a1": "=r"(addr));
  36:src/Riscv.cpp ****                 uint64 result = (uint64)MemoryAllocator::mem_free(addr);
  37:src/Riscv.cpp ****                 __asm__ volatile("mv a0, %0":: "r"(result));
  38:src/Riscv.cpp ****                 break;
  39:src/Riscv.cpp ****             }
  40:src/Riscv.cpp ****             //thread_create
  41:src/Riscv.cpp ****             case 0x11: {
  42:src/Riscv.cpp ****                 thread_t* handle;
  43:src/Riscv.cpp ****                 TCB::Body start_routine;
  44:src/Riscv.cpp ****                 void* args;
  45:src/Riscv.cpp ****                 uint64* stack_space;
  46:src/Riscv.cpp **** 
  47:src/Riscv.cpp ****                 __asm__ volatile("mv %0, a1": "=r"(handle));
  48:src/Riscv.cpp ****                 __asm__ volatile("mv %0, a2": "=r"(start_routine));
  49:src/Riscv.cpp ****                 __asm__ volatile("mv %0, a3": "=r"(args));
  50:src/Riscv.cpp ****                 __asm__ volatile("mv %0, a7": "=r"(stack_space));
  51:src/Riscv.cpp **** 
  52:src/Riscv.cpp ****                 *handle = TCB::createThread(start_routine, args, stack_space);
  53:src/Riscv.cpp ****                 __asm__ volatile("mv a0, %0":: "r"(handle));
  54:src/Riscv.cpp ****                 break;
  55:src/Riscv.cpp ****             }
  56:src/Riscv.cpp ****             //thread_exit
  57:src/Riscv.cpp ****             case 0x12: {
  58:src/Riscv.cpp ****                 int result = TCB::exit();
  59:src/Riscv.cpp ****                 __asm__ volatile("mv a0, %0":: "r"(result));
  60:src/Riscv.cpp ****                 break;
  61:src/Riscv.cpp ****             }
  62:src/Riscv.cpp ****             //thread_dispatch
  63:src/Riscv.cpp ****             case 0x13: {
  64:src/Riscv.cpp ****                 TCB::dispatch();
  65:src/Riscv.cpp ****                 break;
  66:src/Riscv.cpp ****             }
  67:src/Riscv.cpp ****             //sem_open
  68:src/Riscv.cpp ****             case 0x21: {
  69:src/Riscv.cpp ****                 SemaphoreC** handle;
  70:src/Riscv.cpp ****                 unsigned init;
  71:src/Riscv.cpp ****                 __asm__ volatile("mv %0, a1": "=r"(handle));
  72:src/Riscv.cpp ****                 __asm__ volatile("mv %0, a2": "=r"(init));
  73:src/Riscv.cpp **** 
  74:src/Riscv.cpp ****                 if(SemaphoreC::createSem(handle, init)){
  75:src/Riscv.cpp ****                     __asm__ volatile("li a0, 0");
  76:src/Riscv.cpp ****                 }
  77:src/Riscv.cpp ****                 else __asm__ volatile("li a0, -1");
  78:src/Riscv.cpp ****                 break;
  79:src/Riscv.cpp ****             }
  80:src/Riscv.cpp ****             //sem_close
  81:src/Riscv.cpp ****             case 0x22: {
  82:src/Riscv.cpp ****                 sem_t s;
  83:src/Riscv.cpp ****                 __asm__ volatile("mv %0, a1": "=r"(s));
  84:src/Riscv.cpp ****                 int result = s->close();
  85:src/Riscv.cpp ****                 delete s;
  86:src/Riscv.cpp ****                 __asm__ volatile("mv a0, %0":: "r"(result));
  87:src/Riscv.cpp ****                 break;
  88:src/Riscv.cpp ****             }
GAS LISTING /tmp/ccV0SFs6.s 			page 9


  89:src/Riscv.cpp ****             //sem_wait
  90:src/Riscv.cpp ****             case 0x23: {
  91:src/Riscv.cpp ****                 sem_t s;
  92:src/Riscv.cpp ****                 __asm__ volatile("mv %0, a1": "=r"(s));
  93:src/Riscv.cpp ****                 int result = s->wait();
  94:src/Riscv.cpp ****                 __asm__ volatile("mv a0, %0":: "r"(result));
  95:src/Riscv.cpp ****                 break;
  96:src/Riscv.cpp ****             }
  97:src/Riscv.cpp ****             //sem_signal
  98:src/Riscv.cpp ****             case 0x24: {
  99:src/Riscv.cpp ****                 sem_t s;
 100:src/Riscv.cpp ****                 __asm__ volatile("mv %0, a1": "=r"(s));
 101:src/Riscv.cpp ****                 int result = s->signal();
 102:src/Riscv.cpp ****                 __asm__ volatile("mv a0, %0":: "r"(result));
 103:src/Riscv.cpp ****                 break;
 104:src/Riscv.cpp ****             }
 105:src/Riscv.cpp ****             //sem_trywait
 106:src/Riscv.cpp ****             case 0x26: {
 107:src/Riscv.cpp ****                 sem_t s;
 108:src/Riscv.cpp ****                 __asm__ volatile("mv %0, a1": "=r"(s));
 109:src/Riscv.cpp ****                 int result = s->tryWait();
 110:src/Riscv.cpp ****                 __asm__ volatile("mv a0, %0":: "r"(result));
 111:src/Riscv.cpp ****                 break;
 112:src/Riscv.cpp ****             }
 113:src/Riscv.cpp ****             //getc
 114:src/Riscv.cpp ****             case 0x41: {
 115:src/Riscv.cpp ****                 char c = __getc();
 116:src/Riscv.cpp ****                 __asm__ volatile("mv a0, %0"::"r"(c));
 117:src/Riscv.cpp ****                 __asm__ volatile("sd a0, 80(s0)");
 118:src/Riscv.cpp ****                 break;
 119:src/Riscv.cpp ****             }
 120:src/Riscv.cpp ****             //putc
 121:src/Riscv.cpp ****             case 0x42: {
 122:src/Riscv.cpp ****                 char c;
 123:src/Riscv.cpp ****                 __asm__ volatile("mv %0, a1": "=r"(c));
 124:src/Riscv.cpp ****                 __putc(c);
 125:src/Riscv.cpp ****                 break;
 126:src/Riscv.cpp ****             }
 127:src/Riscv.cpp ****             default: break;
 128:src/Riscv.cpp ****         }
 129:src/Riscv.cpp ****         w_sepc(sepc);
 130:src/Riscv.cpp ****         w_sstatus(sstatus);
 131:src/Riscv.cpp ****     }
 132:src/Riscv.cpp ****     else if(scause == CONSOLE_RISCV){
 155              		.loc 1 132 10 is_stmt 1
 156 0078 9307F0FF 		li	a5,-1
 157 007c 9397F703 		slli	a5,a5,63
 158 0080 93879700 		addi	a5,a5,9
 159 0084 638EF420 		beq	s1,a5,.L35
 133:src/Riscv.cpp ****        console_handler();
 134:src/Riscv.cpp ****     }
 135:src/Riscv.cpp ****     else if(scause == TIMER){
 160              		.loc 1 135 10
 161 0088 9307F0FF 		li	a5,-1
 162 008c 9397F703 		slli	a5,a5,63
 163 0090 93871700 		addi	a5,a5,1
 164 0094 638CF420 		beq	s1,a5,.L36
GAS LISTING /tmp/ccV0SFs6.s 			page 10


 136:src/Riscv.cpp ****         mc_sip(SIP_SSIP); //potvrda da smo primili prekid, brisemo zahtev za prekid, obradio se
 137:src/Riscv.cpp ****     }
 138:src/Riscv.cpp ****     else if(scause == LOAD_ACCESS_FAULT){
 165              		.loc 1 138 10
 166 0098 93077000 		li	a5,7
 167 009c 638EF420 		beq	s1,a5,.L37
 139:src/Riscv.cpp ****         printString("Nedozvoljena adresa upisa");
 140:src/Riscv.cpp ****         while (true);
 141:src/Riscv.cpp ****     }
 142:src/Riscv.cpp ****     else if(scause == STORE_ACCESS_FAULT){
 168              		.loc 1 142 10
 169 00a0 93075000 		li	a5,5
 170 00a4 6384F422 		beq	s1,a5,.L38
 143:src/Riscv.cpp ****          printString("Nedozvoljena adresa citanja");
 144:src/Riscv.cpp ****         while (true);
 145:src/Riscv.cpp ****     }
 146:src/Riscv.cpp ****     else if(scause == ILLEGAL_INSTRUCTION) {
 171              		.loc 1 146 10
 172 00a8 93072000 		li	a5,2
 173 00ac 638AF422 		beq	s1,a5,.L39
 147:src/Riscv.cpp ****          printString("Ilegalna instrukcija");
 148:src/Riscv.cpp ****         while (true);
 149:src/Riscv.cpp ****     }
 150:src/Riscv.cpp ****     else{ //nepoznat prekid
 151:src/Riscv.cpp ****          printString("Neobradjena greska \n");
 174              		.loc 1 151 10
 175              		.loc 1 151 21 is_stmt 0
 176 00b0 17050000 		lla	a0,.LC3
 176      13050500 
 177 00b8 97000000 		call	_Z11printStringPKc@plt
 177      E7800000 
 178              	.LVL4:
 152:src/Riscv.cpp ****          printString("SCAUSE ");
 179              		.loc 1 152 10 is_stmt 1
 180              		.loc 1 152 21 is_stmt 0
 181 00c0 17050000 		lla	a0,.LC4
 181      13050500 
 182 00c8 97000000 		call	_Z11printStringPKc@plt
 182      E7800000 
 183              	.LVL5:
 153:src/Riscv.cpp ****          printInt((int)scause);
 184              		.loc 1 153 10 is_stmt 1
 185              		.loc 1 153 18 is_stmt 0
 186 00d0 13060000 		li	a2,0
 187 00d4 9305A000 		li	a1,10
 188 00d8 1B850400 		sext.w	a0,s1
 189 00dc 97000000 		call	_Z8printIntiii@plt
 189      E7800000 
 190              	.LVL6:
 154:src/Riscv.cpp **** 		 printString("\n");
 191              		.loc 1 154 4 is_stmt 1
 192              		.loc 1 154 15 is_stmt 0
 193 00e4 17050000 		lla	a0,.LC5
 193      13050500 
 194 00ec 97000000 		call	_Z11printStringPKc@plt
 194      E7800000 
 195              	.LVL7:
GAS LISTING /tmp/ccV0SFs6.s 			page 11


 196              	.LBE43:
 155:src/Riscv.cpp ****     }
 156:src/Riscv.cpp **** }...
 197              		.loc 1 156 1
 198 00f4 6F00C007 		j	.L6
 199              	.L34:
 200              	.LBB71:
 201              	.LBB44:
  15:src/Riscv.cpp ****         uint64 volatile code;
 202              		.loc 1 15 9 is_stmt 1
  16:src/Riscv.cpp ****         __asm__ volatile("mv %0, a0": "=r"(code));
 203              		.loc 1 16 9
  16:src/Riscv.cpp ****         __asm__ volatile("mv %0, a0": "=r"(code));
 204              		.loc 1 16 50 is_stmt 0
 205              	#APP
 206              	# 16 "src/Riscv.cpp" 1
 207              		mv a5, a0
 208              	# 0 "" 2
 209              	#NO_APP
 210 00fc 2338F4FA 		sd	a5,-80(s0)
  18:src/Riscv.cpp ****         uint64 volatile sepc = r_sepc() + 4;
 211              		.loc 1 18 9 is_stmt 1
 212              	.LBB45:
 213              	.LBB46:
  83:src/../h/Riscv.hpp ****   __asm__ volatile("csrr %[sepc], sepc" : [sepc] "=r" (sepc));
 214              		.loc 3 83 3
  84:src/../h/Riscv.hpp ****   return sepc;
 215              		.loc 3 84 3
  84:src/../h/Riscv.hpp ****   return sepc;
 216              		.loc 3 84 62 is_stmt 0
 217              	#APP
 218              	# 84 "src/../h/Riscv.hpp" 1
 219              		csrr a5, sepc
 220              	# 0 "" 2
 221              	#NO_APP
 222 0104 233CF4FC 		sd	a5,-40(s0)
  85:src/../h/Riscv.hpp **** }
 223              		.loc 3 85 3 is_stmt 1
  85:src/../h/Riscv.hpp **** }
 224              		.loc 3 85 10 is_stmt 0
 225 0108 833784FD 		ld	a5,-40(s0)
 226              	.LBE46:
 227              	.LBE45:
  18:src/Riscv.cpp ****         uint64 volatile sepc = r_sepc() + 4;
 228              		.loc 1 18 41
 229 010c 93874700 		addi	a5,a5,4
  18:src/Riscv.cpp ****         uint64 volatile sepc = r_sepc() + 4;
 230              		.loc 1 18 43
 231 0110 233CF4FA 		sd	a5,-72(s0)
  19:src/Riscv.cpp ****         uint64 volatile sstatus = r_sstatus();
 232              		.loc 1 19 9 is_stmt 1
 233              	.LBB47:
 234              	.LBB48:
 137:src/../h/Riscv.hpp **** 
 138:src/../h/Riscv.hpp **** inline uint64 Riscv::r_sstatus(){
 139:src/../h/Riscv.hpp ****   uint64 volatile sstatus;
 235              		.loc 3 139 3
GAS LISTING /tmp/ccV0SFs6.s 			page 12


 140:src/../h/Riscv.hpp ****   __asm__ volatile("csrr %[sstatus], sstatus" : [sstatus] "=r" (sstatus));
 236              		.loc 3 140 3
 237              		.loc 3 140 74 is_stmt 0
 238              	#APP
 239              	# 140 "src/../h/Riscv.hpp" 1
 141              	  return sstatus;
 240              		csrr a5, sstatus
 241              	# 0 "" 2
 242              	#NO_APP
 243 0118 2338F4FC 		sd	a5,-48(s0)
 244              		.loc 3 141 3 is_stmt 1
 245              		.loc 3 141 10 is_stmt 0
 246 011c 833704FD 		ld	a5,-48(s0)
 247              	.LBE48:
 248              	.LBE47:
  19:src/Riscv.cpp ****         uint64 volatile sstatus = r_sstatus();
 249              		.loc 1 19 45
 250 0120 2330F4FC 		sd	a5,-64(s0)
  21:src/Riscv.cpp ****         switch(code) {
 251              		.loc 1 21 9 is_stmt 1
 252              	.LBB49:
  21:src/Riscv.cpp ****         switch(code) {
 253              		.loc 1 21 16 is_stmt 0
 254 0124 833704FB 		ld	a5,-80(s0)
 255 0128 13072004 		li	a4,66
 256 012c 636AF702 		bgtu	a5,a4,.L8
 257 0130 93972700 		slli	a5,a5,2
 258 0134 17070000 		lla	a4,.L10
 258      13070700 
 259 013c B387E700 		add	a5,a5,a4
 260 0140 83A70700 		lw	a5,0(a5)
 261 0144 B387E700 		add	a5,a5,a4
 262 0148 67800700 		jr	a5
 263              		.section	.rodata
 264              		.align	2
 265              		.align	2
 266              	.L10:
 267 0000 00000000 		.word	.L8-.L10
 268 0004 00000000 		.word	.L21-.L10
 269 0008 00000000 		.word	.L20-.L10
 270 000c 00000000 		.word	.L8-.L10
 271 0010 00000000 		.word	.L8-.L10
 272 0014 00000000 		.word	.L8-.L10
 273 0018 00000000 		.word	.L8-.L10
 274 001c 00000000 		.word	.L8-.L10
 275 0020 00000000 		.word	.L8-.L10
 276 0024 00000000 		.word	.L8-.L10
 277 0028 00000000 		.word	.L8-.L10
 278 002c 00000000 		.word	.L8-.L10
 279 0030 00000000 		.word	.L8-.L10
 280 0034 00000000 		.word	.L8-.L10
 281 0038 00000000 		.word	.L8-.L10
 282 003c 00000000 		.word	.L8-.L10
 283 0040 00000000 		.word	.L8-.L10
 284 0044 00000000 		.word	.L19-.L10
 285 0048 00000000 		.word	.L18-.L10
 286 004c 00000000 		.word	.L17-.L10
GAS LISTING /tmp/ccV0SFs6.s 			page 13


 287 0050 00000000 		.word	.L8-.L10
 288 0054 00000000 		.word	.L8-.L10
 289 0058 00000000 		.word	.L8-.L10
 290 005c 00000000 		.word	.L8-.L10
 291 0060 00000000 		.word	.L8-.L10
 292 0064 00000000 		.word	.L8-.L10
 293 0068 00000000 		.word	.L8-.L10
 294 006c 00000000 		.word	.L8-.L10
 295 0070 00000000 		.word	.L8-.L10
 296 0074 00000000 		.word	.L8-.L10
 297 0078 00000000 		.word	.L8-.L10
 298 007c 00000000 		.word	.L8-.L10
 299 0080 00000000 		.word	.L8-.L10
 300 0084 00000000 		.word	.L16-.L10
 301 0088 00000000 		.word	.L15-.L10
 302 008c 00000000 		.word	.L14-.L10
 303 0090 00000000 		.word	.L13-.L10
 304 0094 00000000 		.word	.L8-.L10
 305 0098 00000000 		.word	.L12-.L10
 306 009c 00000000 		.word	.L8-.L10
 307 00a0 00000000 		.word	.L8-.L10
 308 00a4 00000000 		.word	.L8-.L10
 309 00a8 00000000 		.word	.L8-.L10
 310 00ac 00000000 		.word	.L8-.L10
 311 00b0 00000000 		.word	.L8-.L10
 312 00b4 00000000 		.word	.L8-.L10
 313 00b8 00000000 		.word	.L8-.L10
 314 00bc 00000000 		.word	.L8-.L10
 315 00c0 00000000 		.word	.L8-.L10
 316 00c4 00000000 		.word	.L8-.L10
 317 00c8 00000000 		.word	.L8-.L10
 318 00cc 00000000 		.word	.L8-.L10
 319 00d0 00000000 		.word	.L8-.L10
 320 00d4 00000000 		.word	.L8-.L10
 321 00d8 00000000 		.word	.L8-.L10
 322 00dc 00000000 		.word	.L8-.L10
 323 00e0 00000000 		.word	.L8-.L10
 324 00e4 00000000 		.word	.L8-.L10
 325 00e8 00000000 		.word	.L8-.L10
 326 00ec 00000000 		.word	.L8-.L10
 327 00f0 00000000 		.word	.L8-.L10
 328 00f4 00000000 		.word	.L8-.L10
 329 00f8 00000000 		.word	.L8-.L10
 330 00fc 00000000 		.word	.L8-.L10
 331 0100 00000000 		.word	.L8-.L10
 332 0104 00000000 		.word	.L11-.L10
 333 0108 00000000 		.word	.L9-.L10
 334              		.text
 335              	.L21:
 336              	.LBB50:
  23:src/Riscv.cpp ****             case 0x01: {
 337              		.loc 1 23 13 is_stmt 1
  23:src/Riscv.cpp ****             case 0x01: {
 338              		.loc 1 23 24
 339              	.LBB51:
  24:src/Riscv.cpp ****                 size_t size;
 340              		.loc 1 24 17
GAS LISTING /tmp/ccV0SFs6.s 			page 14


  25:src/Riscv.cpp ****                 __asm__ volatile("mv %0, a1": "=r"(size));
 341              		.loc 1 25 17
  25:src/Riscv.cpp ****                 __asm__ volatile("mv %0, a1": "=r"(size));
 342              		.loc 1 25 58 is_stmt 0
 343              	#APP
 344              	# 25 "src/Riscv.cpp" 1
 345              		mv a0, a1
 346              	# 0 "" 2
 347              	.LVL8:
  26:src/Riscv.cpp ****                 void* mem = MemoryAllocator::mem_alloc(size);
 348              		.loc 1 26 17 is_stmt 1
  26:src/Riscv.cpp ****                 void* mem = MemoryAllocator::mem_alloc(size);
 349              		.loc 1 26 55 is_stmt 0
 350              	#NO_APP
 351 0150 97000000 		call	_ZN15MemoryAllocator9mem_allocEm@plt
 351      E7800000 
 352              	.LVL9:
  27:src/Riscv.cpp ****                 __asm__ volatile("mv a0, %0":: "r"(mem));
 353              		.loc 1 27 17 is_stmt 1
  27:src/Riscv.cpp ****                 __asm__ volatile("mv a0, %0":: "r"(mem));
 354              		.loc 1 27 57 is_stmt 0
 355              	#APP
 356              	# 27 "src/Riscv.cpp" 1
  28:src/Riscv.cpp ****                 __asm__ volatile("sd a0, 80(s0)");
 357              		mv a0, a0
 358              	# 0 "" 2
 359              		.loc 1 28 17 is_stmt 1
  28:src/Riscv.cpp ****                 __asm__ volatile("sd a0, 80(s0)");
 360              		.loc 1 28 50 is_stmt 0
 361              	# 28 "src/Riscv.cpp" 1
  30:src/Riscv.cpp ****                 break;
 362              		sd a0, 80(s0)
 363              	# 0 "" 2
 364              		.loc 1 30 17 is_stmt 1
 365              	.LVL10:
 366              	#NO_APP
 367              	.L8:
 368              	.LBE51:
 369              	.LBE50:
 370              	.LBE49:
 129:src/Riscv.cpp ****         w_sepc(sepc);
 371              		.loc 1 129 9
 129:src/Riscv.cpp ****         w_sepc(sepc);
 372              		.loc 1 129 15 is_stmt 0
 373 0160 833784FB 		ld	a5,-72(s0)
 374              	.LVL11:
 375              	.LBB63:
 376              	.LBB64:
  89:src/../h/Riscv.hpp **** }
 377              		.loc 3 89 3 is_stmt 1
  89:src/../h/Riscv.hpp **** }
 378              		.loc 3 89 63 is_stmt 0
 379              	#APP
 380              	# 89 "src/../h/Riscv.hpp" 1
 381              		csrw sepc, a5
 382              	# 0 "" 2
 383              	.LVL12:
GAS LISTING /tmp/ccV0SFs6.s 			page 15


 384              	#NO_APP
 385              	.LBE64:
 386              	.LBE63:
 130:src/Riscv.cpp ****         w_sstatus(sstatus);
 387              		.loc 1 130 9 is_stmt 1
 130:src/Riscv.cpp ****         w_sstatus(sstatus);
 388              		.loc 1 130 18 is_stmt 0
 389 0168 833704FC 		ld	a5,-64(s0)
 390              	.LVL13:
 391              	.LBB65:
 392              	.LBB66:
 142:src/../h/Riscv.hpp **** }
 143:src/../h/Riscv.hpp **** 
 144:src/../h/Riscv.hpp **** inline void Riscv::w_sstatus(uint64 sstatus){
 145:src/../h/Riscv.hpp ****   __asm__ volatile("csrw sstatus, %[sstatus]" : : [sstatus] "r" (sstatus));
 393              		.loc 3 145 3 is_stmt 1
 394              		.loc 3 145 75 is_stmt 0
 395              	#APP
 396              	# 145 "src/../h/Riscv.hpp" 1
 146              	}
 397              		csrw sstatus, a5
 398              	# 0 "" 2
 399              	.LVL14:
 400              	#NO_APP
 401              	.L6:
 402              	.LBE66:
 403              	.LBE65:
 404              	.LBE44:
 405              	.LBE71:
 406              		.loc 1 156 1
 407 0170 83308104 		ld	ra,72(sp)
 408              		.cfi_remember_state
 409              		.cfi_restore 1
 410 0174 03340104 		ld	s0,64(sp)
 411              		.cfi_restore 8
 412              		.cfi_def_cfa 2, 80
 413 0178 83348103 		ld	s1,56(sp)
 414              		.cfi_restore 9
 415 017c 03390103 		ld	s2,48(sp)
 416              		.cfi_restore 18
 417 0180 13010105 		addi	sp,sp,80
 418              		.cfi_def_cfa_offset 0
 419 0184 67800000 		jr	ra
 420              	.LVL15:
 421              	.L20:
 422              		.cfi_restore_state
 423              	.LBB72:
 424              	.LBB68:
 425              	.LBB67:
 426              	.LBB62:
  33:src/Riscv.cpp ****             case 0x02: {
 427              		.loc 1 33 13 is_stmt 1
  33:src/Riscv.cpp ****             case 0x02: {
 428              		.loc 1 33 24
 429              	.LBB52:
  34:src/Riscv.cpp ****                 void* addr;
 430              		.loc 1 34 17
GAS LISTING /tmp/ccV0SFs6.s 			page 16


  35:src/Riscv.cpp ****                 __asm__ volatile("mv %0, a1": "=r"(addr));
 431              		.loc 1 35 17
  35:src/Riscv.cpp ****                 __asm__ volatile("mv %0, a1": "=r"(addr));
 432              		.loc 1 35 58 is_stmt 0
 433              	#APP
 434              	# 35 "src/Riscv.cpp" 1
 435              		mv a0, a1
 436              	# 0 "" 2
 437              	.LVL16:
  36:src/Riscv.cpp ****                 uint64 result = (uint64)MemoryAllocator::mem_free(addr);
 438              		.loc 1 36 17 is_stmt 1
  36:src/Riscv.cpp ****                 uint64 result = (uint64)MemoryAllocator::mem_free(addr);
 439              		.loc 1 36 66 is_stmt 0
 440              	#NO_APP
 441 018c 97000000 		call	_ZN15MemoryAllocator8mem_freeEPv@plt
 441      E7800000 
 442              	.LVL17:
  37:src/Riscv.cpp ****                 __asm__ volatile("mv a0, %0":: "r"(result));
 443              		.loc 1 37 17 is_stmt 1
  37:src/Riscv.cpp ****                 __asm__ volatile("mv a0, %0":: "r"(result));
 444              		.loc 1 37 60 is_stmt 0
 445              	#APP
 446              	# 37 "src/Riscv.cpp" 1
  38:src/Riscv.cpp ****                 break;
 447              		mv a0, a0
 448              	# 0 "" 2
 449              		.loc 1 38 17 is_stmt 1
 450              	#NO_APP
 451 0198 6FF09FFC 		j	.L8
 452              	.LVL18:
 453              	.L19:
 454              	.LBE52:
  41:src/Riscv.cpp ****             case 0x11: {
 455              		.loc 1 41 13
  41:src/Riscv.cpp ****             case 0x11: {
 456              		.loc 1 41 24
 457              	.LBB53:
  42:src/Riscv.cpp ****                 thread_t* handle;
 458              		.loc 1 42 17
  43:src/Riscv.cpp ****                 TCB::Body start_routine;
 459              		.loc 1 43 17
  44:src/Riscv.cpp ****                 void* args;
 460              		.loc 1 44 17
  45:src/Riscv.cpp ****                 uint64* stack_space;
 461              		.loc 1 45 17
  47:src/Riscv.cpp ****                 __asm__ volatile("mv %0, a1": "=r"(handle));
 462              		.loc 1 47 17
  47:src/Riscv.cpp ****                 __asm__ volatile("mv %0, a1": "=r"(handle));
 463              		.loc 1 47 60 is_stmt 0
 464              	#APP
 465              	# 47 "src/Riscv.cpp" 1
 466              		mv s1, a1
 467              	# 0 "" 2
 468              	.LVL19:
  48:src/Riscv.cpp ****                 __asm__ volatile("mv %0, a2": "=r"(start_routine));
 469              		.loc 1 48 17 is_stmt 1
  48:src/Riscv.cpp ****                 __asm__ volatile("mv %0, a2": "=r"(start_routine));
GAS LISTING /tmp/ccV0SFs6.s 			page 17


 470              		.loc 1 48 67 is_stmt 0
 471              	# 48 "src/Riscv.cpp" 1
 472              		mv a0, a2
 473              	# 0 "" 2
 474              	.LVL20:
  49:src/Riscv.cpp ****                 __asm__ volatile("mv %0, a3": "=r"(args));
 475              		.loc 1 49 17 is_stmt 1
  49:src/Riscv.cpp ****                 __asm__ volatile("mv %0, a3": "=r"(args));
 476              		.loc 1 49 58 is_stmt 0
 477              	# 49 "src/Riscv.cpp" 1
 478              		mv a1, a3
 479              	# 0 "" 2
 480              	.LVL21:
  50:src/Riscv.cpp ****                 __asm__ volatile("mv %0, a7": "=r"(stack_space));
 481              		.loc 1 50 17 is_stmt 1
  50:src/Riscv.cpp ****                 __asm__ volatile("mv %0, a7": "=r"(stack_space));
 482              		.loc 1 50 65 is_stmt 0
 483              	# 50 "src/Riscv.cpp" 1
 484              		mv a2, a7
 485              	# 0 "" 2
 486              	.LVL22:
  52:src/Riscv.cpp ****                 *handle = TCB::createThread(start_routine, args, stack_space);
 487              		.loc 1 52 17 is_stmt 1
  52:src/Riscv.cpp ****                 *handle = TCB::createThread(start_routine, args, stack_space);
 488              		.loc 1 52 44 is_stmt 0
 489              	#NO_APP
 490 01ac 97000000 		call	_ZN3TCB12createThreadEPFvPvES0_Pm@plt
 490      E7800000 
 491              	.LVL23:
  52:src/Riscv.cpp ****                 *handle = TCB::createThread(start_routine, args, stack_space);
 492              		.loc 1 52 25
 493 01b4 23B0A400 		sd	a0,0(s1)
  53:src/Riscv.cpp ****                 __asm__ volatile("mv a0, %0":: "r"(handle));
 494              		.loc 1 53 17 is_stmt 1
  53:src/Riscv.cpp ****                 __asm__ volatile("mv a0, %0":: "r"(handle));
 495              		.loc 1 53 60 is_stmt 0
 496              	#APP
 497              	# 53 "src/Riscv.cpp" 1
  54:src/Riscv.cpp ****                 break;
 498              		mv a0, s1
 499              	# 0 "" 2
 500              		.loc 1 54 17 is_stmt 1
 501              	#NO_APP
 502 01bc 6FF05FFA 		j	.L8
 503              	.LVL24:
 504              	.L18:
 505              	.LBE53:
  57:src/Riscv.cpp ****             case 0x12: {
 506              		.loc 1 57 13
  57:src/Riscv.cpp ****             case 0x12: {
 507              		.loc 1 57 24
 508              	.LBB54:
  58:src/Riscv.cpp ****                 int result = TCB::exit();
 509              		.loc 1 58 17
  58:src/Riscv.cpp ****                 int result = TCB::exit();
 510              		.loc 1 58 39 is_stmt 0
 511 01c0 97000000 		call	_ZN3TCB4exitEv@plt
GAS LISTING /tmp/ccV0SFs6.s 			page 18


 511      E7800000 
 512              	.LVL25:
  59:src/Riscv.cpp ****                 __asm__ volatile("mv a0, %0":: "r"(result));
 513              		.loc 1 59 17 is_stmt 1
  59:src/Riscv.cpp ****                 __asm__ volatile("mv a0, %0":: "r"(result));
 514              		.loc 1 59 60 is_stmt 0
 515              	#APP
 516              	# 59 "src/Riscv.cpp" 1
  60:src/Riscv.cpp ****                 break;
 517              		mv a0, a0
 518              	# 0 "" 2
 519              		.loc 1 60 17 is_stmt 1
 520              	#NO_APP
 521 01cc 6FF05FF9 		j	.L8
 522              	.LVL26:
 523              	.L17:
 524              	.LBE54:
  63:src/Riscv.cpp ****             case 0x13: {
 525              		.loc 1 63 13
  63:src/Riscv.cpp ****             case 0x13: {
 526              		.loc 1 63 24
  64:src/Riscv.cpp ****                 TCB::dispatch();
 527              		.loc 1 64 17
  64:src/Riscv.cpp ****                 TCB::dispatch();
 528              		.loc 1 64 30 is_stmt 0
 529 01d0 97000000 		call	_ZN3TCB8dispatchEv@plt
 529      E7800000 
 530              	.LVL27:
  65:src/Riscv.cpp ****                 break;
 531              		.loc 1 65 17 is_stmt 1
 532 01d8 6FF09FF8 		j	.L8
 533              	.L16:
  68:src/Riscv.cpp ****             case 0x21: {
 534              		.loc 1 68 13
  68:src/Riscv.cpp ****             case 0x21: {
 535              		.loc 1 68 24
 536              	.LBB55:
  69:src/Riscv.cpp ****                 SemaphoreC** handle;
 537              		.loc 1 69 17
  70:src/Riscv.cpp ****                 unsigned init;
 538              		.loc 1 70 17
  71:src/Riscv.cpp ****                 __asm__ volatile("mv %0, a1": "=r"(handle));
 539              		.loc 1 71 17
  71:src/Riscv.cpp ****                 __asm__ volatile("mv %0, a1": "=r"(handle));
 540              		.loc 1 71 60 is_stmt 0
 541              	#APP
 542              	# 71 "src/Riscv.cpp" 1
 543              		mv a0, a1
 544              	# 0 "" 2
 545              	.LVL28:
  72:src/Riscv.cpp ****                 __asm__ volatile("mv %0, a2": "=r"(init));
 546              		.loc 1 72 17 is_stmt 1
  72:src/Riscv.cpp ****                 __asm__ volatile("mv %0, a2": "=r"(init));
 547              		.loc 1 72 58 is_stmt 0
 548              	# 72 "src/Riscv.cpp" 1
 549              		mv a1, a2
 550              	# 0 "" 2
GAS LISTING /tmp/ccV0SFs6.s 			page 19


 551              	.LVL29:
  74:src/Riscv.cpp ****                 if(SemaphoreC::createSem(handle, init)){
 552              		.loc 1 74 17 is_stmt 1
  74:src/Riscv.cpp ****                 if(SemaphoreC::createSem(handle, init)){
 553              		.loc 1 74 41 is_stmt 0
 554              	#NO_APP
 555 01e4 9B850500 		sext.w	a1,a1
 556 01e8 97000000 		call	_ZN10SemaphoreC9createSemEPPS_j@plt
 556      E7800000 
 557              	.LVL30:
  74:src/Riscv.cpp ****                 if(SemaphoreC::createSem(handle, init)){
 558              		.loc 1 74 17
 559 01f0 63060500 		beqz	a0,.L22
  75:src/Riscv.cpp ****                     __asm__ volatile("li a0, 0");
 560              		.loc 1 75 21 is_stmt 1
  75:src/Riscv.cpp ****                     __asm__ volatile("li a0, 0");
 561              		.loc 1 75 49 is_stmt 0
 562              	#APP
 563              	# 75 "src/Riscv.cpp" 1
 564              		li a0, 0
 565              	# 0 "" 2
 566              	#NO_APP
 567 01f8 6FF09FF6 		j	.L8
 568              	.L22:
  77:src/Riscv.cpp ****                 else __asm__ volatile("li a0, -1");
 569              		.loc 1 77 22 is_stmt 1
  77:src/Riscv.cpp ****                 else __asm__ volatile("li a0, -1");
 570              		.loc 1 77 51 is_stmt 0
 571              	#APP
 572              	# 77 "src/Riscv.cpp" 1
 573              		li a0, -1
 574              	# 0 "" 2
 575              	#NO_APP
 576 0200 6FF01FF6 		j	.L8
 577              	.L15:
 578              	.LBE55:
  81:src/Riscv.cpp ****             case 0x22: {
 579              		.loc 1 81 13 is_stmt 1
  81:src/Riscv.cpp ****             case 0x22: {
 580              		.loc 1 81 24
 581              	.LBB56:
  82:src/Riscv.cpp ****                 sem_t s;
 582              		.loc 1 82 17
  83:src/Riscv.cpp ****                 __asm__ volatile("mv %0, a1": "=r"(s));
 583              		.loc 1 83 17
  83:src/Riscv.cpp ****                 __asm__ volatile("mv %0, a1": "=r"(s));
 584              		.loc 1 83 55 is_stmt 0
 585              	#APP
 586              	# 83 "src/Riscv.cpp" 1
 587              		mv s1, a1
 588              	# 0 "" 2
 589              	.LVL31:
  84:src/Riscv.cpp ****                 int result = s->close();
 590              		.loc 1 84 17 is_stmt 1
  84:src/Riscv.cpp ****                 int result = s->close();
 591              		.loc 1 84 38 is_stmt 0
 592              	#NO_APP
GAS LISTING /tmp/ccV0SFs6.s 			page 20


 593 0208 13850400 		mv	a0,s1
 594 020c 97000000 		call	_ZN10SemaphoreC5closeEv@plt
 594      E7800000 
 595              	.LVL32:
 596 0214 13090500 		mv	s2,a0
 597              	.LVL33:
  85:src/Riscv.cpp ****                 delete s;
 598              		.loc 1 85 17 is_stmt 1
  85:src/Riscv.cpp ****                 delete s;
 599              		.loc 1 85 25 is_stmt 0
 600 0218 638E0400 		beqz	s1,.L23
  85:src/Riscv.cpp ****                 delete s;
 601              		.loc 1 85 24 discriminator 1
 602 021c 13850400 		mv	a0,s1
 603 0220 97000000 		call	_ZN10SemaphoreCD1Ev@plt
 603      E7800000 
 604              	.LVL34:
 605 0228 13850400 		mv	a0,s1
 606 022c 97000000 		call	_ZdlPv@plt
 606      E7800000 
 607              	.LVL35:
 608              	.L23:
  86:src/Riscv.cpp ****                 __asm__ volatile("mv a0, %0":: "r"(result));
 609              		.loc 1 86 17 is_stmt 1
  86:src/Riscv.cpp ****                 __asm__ volatile("mv a0, %0":: "r"(result));
 610              		.loc 1 86 60 is_stmt 0
 611              	#APP
 612              	# 86 "src/Riscv.cpp" 1
  87:src/Riscv.cpp ****                 break;
 613              		mv a0, s2
 614              	# 0 "" 2
 615              		.loc 1 87 17 is_stmt 1
 616              	#NO_APP
 617 0238 6FF09FF2 		j	.L8
 618              	.LVL36:
 619              	.L14:
 620              	.LBE56:
  90:src/Riscv.cpp ****             case 0x23: {
 621              		.loc 1 90 13
  90:src/Riscv.cpp ****             case 0x23: {
 622              		.loc 1 90 24
 623              	.LBB57:
  91:src/Riscv.cpp ****                 sem_t s;
 624              		.loc 1 91 17
  92:src/Riscv.cpp ****                 __asm__ volatile("mv %0, a1": "=r"(s));
 625              		.loc 1 92 17
  92:src/Riscv.cpp ****                 __asm__ volatile("mv %0, a1": "=r"(s));
 626              		.loc 1 92 55 is_stmt 0
 627              	#APP
 628              	# 92 "src/Riscv.cpp" 1
 629              		mv a0, a1
 630              	# 0 "" 2
 631              	.LVL37:
  93:src/Riscv.cpp ****                 int result = s->wait();
 632              		.loc 1 93 17 is_stmt 1
  93:src/Riscv.cpp ****                 int result = s->wait();
 633              		.loc 1 93 37 is_stmt 0
GAS LISTING /tmp/ccV0SFs6.s 			page 21


 634              	#NO_APP
 635 0240 97000000 		call	_ZN10SemaphoreC4waitEv@plt
 635      E7800000 
 636              	.LVL38:
  94:src/Riscv.cpp ****                 __asm__ volatile("mv a0, %0":: "r"(result));
 637              		.loc 1 94 17 is_stmt 1
  94:src/Riscv.cpp ****                 __asm__ volatile("mv a0, %0":: "r"(result));
 638              		.loc 1 94 60 is_stmt 0
 639              	#APP
 640              	# 94 "src/Riscv.cpp" 1
  95:src/Riscv.cpp ****                 break;
 641              		mv a0, a0
 642              	# 0 "" 2
 643              		.loc 1 95 17 is_stmt 1
 644              	#NO_APP
 645 024c 6FF05FF1 		j	.L8
 646              	.LVL39:
 647              	.L13:
 648              	.LBE57:
  98:src/Riscv.cpp ****             case 0x24: {
 649              		.loc 1 98 13
  98:src/Riscv.cpp ****             case 0x24: {
 650              		.loc 1 98 24
 651              	.LBB58:
  99:src/Riscv.cpp ****                 sem_t s;
 652              		.loc 1 99 17
 100:src/Riscv.cpp ****                 __asm__ volatile("mv %0, a1": "=r"(s));
 653              		.loc 1 100 17
 100:src/Riscv.cpp ****                 __asm__ volatile("mv %0, a1": "=r"(s));
 654              		.loc 1 100 55 is_stmt 0
 655              	#APP
 656              	# 100 "src/Riscv.cpp" 1
 657              		mv a0, a1
 658              	# 0 "" 2
 659              	.LVL40:
 101:src/Riscv.cpp ****                 int result = s->signal();
 660              		.loc 1 101 17 is_stmt 1
 101:src/Riscv.cpp ****                 int result = s->signal();
 661              		.loc 1 101 39 is_stmt 0
 662              	#NO_APP
 663 0254 97000000 		call	_ZN10SemaphoreC6signalEv@plt
 663      E7800000 
 664              	.LVL41:
 102:src/Riscv.cpp ****                 __asm__ volatile("mv a0, %0":: "r"(result));
 665              		.loc 1 102 17 is_stmt 1
 102:src/Riscv.cpp ****                 __asm__ volatile("mv a0, %0":: "r"(result));
 666              		.loc 1 102 60 is_stmt 0
 667              	#APP
 668              	# 102 "src/Riscv.cpp" 1
 103:src/Riscv.cpp ****                 break;
 669              		mv a0, a0
 670              	# 0 "" 2
 671              		.loc 1 103 17 is_stmt 1
 672              	#NO_APP
 673 0260 6FF01FF0 		j	.L8
 674              	.LVL42:
 675              	.L12:
GAS LISTING /tmp/ccV0SFs6.s 			page 22


 676              	.LBE58:
 106:src/Riscv.cpp ****             case 0x26: {
 677              		.loc 1 106 13
 106:src/Riscv.cpp ****             case 0x26: {
 678              		.loc 1 106 24
 679              	.LBB59:
 107:src/Riscv.cpp ****                 sem_t s;
 680              		.loc 1 107 17
 108:src/Riscv.cpp ****                 __asm__ volatile("mv %0, a1": "=r"(s));
 681              		.loc 1 108 17
 108:src/Riscv.cpp ****                 __asm__ volatile("mv %0, a1": "=r"(s));
 682              		.loc 1 108 55 is_stmt 0
 683              	#APP
 684              	# 108 "src/Riscv.cpp" 1
 685              		mv a0, a1
 686              	# 0 "" 2
 687              	.LVL43:
 109:src/Riscv.cpp ****                 int result = s->tryWait();
 688              		.loc 1 109 17 is_stmt 1
 109:src/Riscv.cpp ****                 int result = s->tryWait();
 689              		.loc 1 109 40 is_stmt 0
 690              	#NO_APP
 691 0268 97000000 		call	_ZN10SemaphoreC7tryWaitEv@plt
 691      E7800000 
 692              	.LVL44:
 110:src/Riscv.cpp ****                 __asm__ volatile("mv a0, %0":: "r"(result));
 693              		.loc 1 110 17 is_stmt 1
 110:src/Riscv.cpp ****                 __asm__ volatile("mv a0, %0":: "r"(result));
 694              		.loc 1 110 60 is_stmt 0
 695              	#APP
 696              	# 110 "src/Riscv.cpp" 1
 111:src/Riscv.cpp ****                 break;
 697              		mv a0, a0
 698              	# 0 "" 2
 699              		.loc 1 111 17 is_stmt 1
 700              	#NO_APP
 701 0274 6FF0DFEE 		j	.L8
 702              	.LVL45:
 703              	.L11:
 704              	.LBE59:
 114:src/Riscv.cpp ****             case 0x41: {
 705              		.loc 1 114 13
 114:src/Riscv.cpp ****             case 0x41: {
 706              		.loc 1 114 24
 707              	.LBB60:
 115:src/Riscv.cpp ****                 char c = __getc();
 708              		.loc 1 115 17
 115:src/Riscv.cpp ****                 char c = __getc();
 709              		.loc 1 115 32 is_stmt 0
 710 0278 97000000 		call	__getc@plt
 710      E7800000 
 711              	.LVL46:
 116:src/Riscv.cpp ****                 __asm__ volatile("mv a0, %0"::"r"(c));
 712              		.loc 1 116 17 is_stmt 1
 116:src/Riscv.cpp ****                 __asm__ volatile("mv a0, %0"::"r"(c));
 713              		.loc 1 116 54 is_stmt 0
 714              	#APP
GAS LISTING /tmp/ccV0SFs6.s 			page 23


 715              	# 116 "src/Riscv.cpp" 1
 117:src/Riscv.cpp ****                 __asm__ volatile("sd a0, 80(s0)");
 716              		mv a0, a0
 717              	# 0 "" 2
 718              		.loc 1 117 17 is_stmt 1
 117:src/Riscv.cpp ****                 __asm__ volatile("sd a0, 80(s0)");
 719              		.loc 1 117 50 is_stmt 0
 720              	# 117 "src/Riscv.cpp" 1
 118:src/Riscv.cpp ****                 break;
 721              		sd a0, 80(s0)
 722              	# 0 "" 2
 723              		.loc 1 118 17 is_stmt 1
 724              	#NO_APP
 725 0288 6FF09FED 		j	.L8
 726              	.LVL47:
 727              	.L9:
 728              	.LBE60:
 121:src/Riscv.cpp ****             case 0x42: {
 729              		.loc 1 121 13
 121:src/Riscv.cpp ****             case 0x42: {
 730              		.loc 1 121 24
 731              	.LBB61:
 122:src/Riscv.cpp ****                 char c;
 732              		.loc 1 122 17
 123:src/Riscv.cpp ****                 __asm__ volatile("mv %0, a1": "=r"(c));
 733              		.loc 1 123 17
 123:src/Riscv.cpp ****                 __asm__ volatile("mv %0, a1": "=r"(c));
 734              		.loc 1 123 55 is_stmt 0
 735              	#APP
 736              	# 123 "src/Riscv.cpp" 1
 737              		mv a0, a1
 738              	# 0 "" 2
 739              	.LVL48:
 124:src/Riscv.cpp ****                 __putc(c);
 740              		.loc 1 124 17 is_stmt 1
 124:src/Riscv.cpp ****                 __putc(c);
 741              		.loc 1 124 23 is_stmt 0
 742              	#NO_APP
 743 0290 1375F50F 		andi	a0,a0,0xff
 744 0294 97000000 		call	__putc@plt
 744      E7800000 
 745              	.LVL49:
 125:src/Riscv.cpp ****                 break;
 746              		.loc 1 125 17 is_stmt 1
 747 029c 6FF05FEC 		j	.L8
 748              	.L35:
 749              	.LBE61:
 750              	.LBE62:
 751              	.LBE67:
 752              	.LBE68:
 133:src/Riscv.cpp ****        console_handler();
 753              		.loc 1 133 8
 133:src/Riscv.cpp ****        console_handler();
 754              		.loc 1 133 23 is_stmt 0
 755 02a0 97000000 		call	console_handler@plt
 755      E7800000 
 756              	.LVL50:
GAS LISTING /tmp/ccV0SFs6.s 			page 24


 757 02a8 6FF09FEC 		j	.L6
 758              	.L36:
 136:src/Riscv.cpp ****         mc_sip(SIP_SSIP); //potvrda da smo primili prekid, brisemo zahtev za prekid, obradio se
 759              		.loc 1 136 9 is_stmt 1
 760              	.LVL51:
 761              	.LBB69:
 762              	.LBB70:
 117:src/../h/Riscv.hpp ****  }
 763              		.loc 3 117 3
 117:src/../h/Riscv.hpp ****  }
 764              		.loc 3 117 62 is_stmt 0
 765 02ac 93072000 		li	a5,2
 766              	#APP
 767              	# 117 "src/../h/Riscv.hpp" 1
 118:src/../h/Riscv.hpp **** 
 768              		csrc sip, a5
 769              	# 0 "" 2
 770              		.loc 3 118 2
 771              	#NO_APP
 772 02b4 6FF0DFEB 		j	.L6
 773              	.LVL52:
 774              	.L37:
 775              	.LBE70:
 776              	.LBE69:
 139:src/Riscv.cpp ****         printString("Nedozvoljena adresa upisa");
 777              		.loc 1 139 9 is_stmt 1
 139:src/Riscv.cpp ****         printString("Nedozvoljena adresa upisa");
 778              		.loc 1 139 20 is_stmt 0
 779 02b8 17050000 		lla	a0,.LC0
 779      13050500 
 780 02c0 97000000 		call	_Z11printStringPKc@plt
 780      E7800000 
 781              	.LVL53:
 782              	.L28:
 140:src/Riscv.cpp ****         while (true);
 783              		.loc 1 140 9 is_stmt 1 discriminator 1
 140:src/Riscv.cpp ****         while (true);
 784              		.loc 1 140 9 discriminator 1
 785 02c8 6F000000 		j	.L28
 786              	.L38:
 143:src/Riscv.cpp ****          printString("Nedozvoljena adresa citanja");
 787              		.loc 1 143 10
 143:src/Riscv.cpp ****          printString("Nedozvoljena adresa citanja");
 788              		.loc 1 143 21 is_stmt 0
 789 02cc 17050000 		lla	a0,.LC1
 789      13050500 
 790 02d4 97000000 		call	_Z11printStringPKc@plt
 790      E7800000 
 791              	.LVL54:
 792              	.L30:
 144:src/Riscv.cpp ****         while (true);
 793              		.loc 1 144 9 is_stmt 1 discriminator 2
 144:src/Riscv.cpp ****         while (true);
 794              		.loc 1 144 9 discriminator 2
 795 02dc 6F000000 		j	.L30
 796              	.L39:
 147:src/Riscv.cpp ****          printString("Ilegalna instrukcija");
GAS LISTING /tmp/ccV0SFs6.s 			page 25


 797              		.loc 1 147 10
 147:src/Riscv.cpp ****          printString("Ilegalna instrukcija");
 798              		.loc 1 147 21 is_stmt 0
 799 02e0 17050000 		lla	a0,.LC2
 799      13050500 
 800 02e8 97000000 		call	_Z11printStringPKc@plt
 800      E7800000 
 801              	.LVL55:
 802              	.L32:
 148:src/Riscv.cpp ****         while (true);
 803              		.loc 1 148 9 is_stmt 1 discriminator 3
 148:src/Riscv.cpp ****         while (true);
 804              		.loc 1 148 9 discriminator 3
 805 02f0 6F000000 		j	.L32
 806              	.LBE72:
 807              		.cfi_endproc
 808              	.LFE44:
 810              	.Letext0:
 811              		.file 4 "src/../h/../lib/hw.h"
 812              		.file 5 "src/../h/MemoryAllocator.hpp"
 813              		.file 6 "src/../h/list.hpp"
 814              		.file 7 "src/../h/SemaphoreC.hpp"
 815              		.file 8 "src/../h/../test/../h/syscall_c.hpp"
 816              		.file 9 "src/../h/../lib/console.h"
 817              		.file 10 "src/../h/../test/printing.hpp"
GAS LISTING /tmp/ccV0SFs6.s 			page 26


DEFINED SYMBOLS
                            *ABS*:0000000000000000 Riscv.cpp
     /tmp/ccV0SFs6.s:9      .text:0000000000000000 _ZN5Riscv10popSppSpieEv
     /tmp/ccV0SFs6.s:13     .text:0000000000000000 .L0 
     /tmp/ccV0SFs6.s:14     .text:0000000000000000 .L0 
     /tmp/ccV0SFs6.s:15     .text:0000000000000004 .L0 
     /tmp/ccV0SFs6.s:17     .text:0000000000000008 .L0 
     /tmp/ccV0SFs6.s:19     .text:000000000000000c .L0 
     /tmp/ccV0SFs6.s:24     .text:000000000000000c .L0 
     /tmp/ccV0SFs6.s:25     .text:000000000000000c .L0 
     /tmp/ccV0SFs6.s:26     .text:000000000000000c .L0 
     /tmp/ccV0SFs6.s:32     .text:000000000000001c .L0 
     /tmp/ccV0SFs6.s:38     .text:0000000000000020 .L0 
     /tmp/ccV0SFs6.s:39     .text:0000000000000020 .L0 
     /tmp/ccV0SFs6.s:40     .text:0000000000000020 .L0 
     /tmp/ccV0SFs6.s:51     .text:0000000000000028 .L0 
       src/Riscv.cpp:8      .text:0000000000000028 .L0 
     /tmp/ccV0SFs6.s:57     .text:000000000000002c .L0 
       src/Riscv.cpp:9      .text:000000000000002c .L0 
     /tmp/ccV0SFs6.s:63     .text:0000000000000030 .L0 
     /tmp/ccV0SFs6.s:64     .text:0000000000000034 .L0 
     /tmp/ccV0SFs6.s:65     .text:0000000000000034 .L0 
     /tmp/ccV0SFs6.s:66     .text:0000000000000034 .L0 
     /tmp/ccV0SFs6.s:68     .text:0000000000000038 .L0 
     /tmp/ccV0SFs6.s:71     .text:000000000000003c .L0 
     /tmp/ccV0SFs6.s:76     .text:000000000000003c .L0 
     /tmp/ccV0SFs6.s:77     .text:000000000000003c .L0 
     /tmp/ccV0SFs6.s:78     .text:000000000000003c .L0 
     /tmp/ccV0SFs6.s:85     .text:0000000000000044 .L0 
     /tmp/ccV0SFs6.s:88     .text:0000000000000048 .L0 
     /tmp/ccV0SFs6.s:114    .text:0000000000000048 _ZN5Riscv20handleSupervisorTrapEv
     /tmp/ccV0SFs6.s:117    .text:0000000000000048 .L0 
     /tmp/ccV0SFs6.s:118    .text:0000000000000048 .L0 
     /tmp/ccV0SFs6.s:119    .text:000000000000004c .L0 
     /tmp/ccV0SFs6.s:124    .text:000000000000005c .L0 
     /tmp/ccV0SFs6.s:125    .text:000000000000005c .L0 
     /tmp/ccV0SFs6.s:126    .text:000000000000005c .L0 
     /tmp/ccV0SFs6.s:127    .text:000000000000005c .L0 
     /tmp/ccV0SFs6.s:129    .text:0000000000000060 .L0 
     /tmp/ccV0SFs6.s:133    .text:0000000000000060 .L0 
     /tmp/ccV0SFs6.s:134    .text:0000000000000060 .L0 
     /tmp/ccV0SFs6.s:135    .text:0000000000000060 .L0 
  src/../h/Riscv.hpp:74     .text:0000000000000060 .L0 
     /tmp/ccV0SFs6.s:143    .text:0000000000000068 .L0 
     /tmp/ccV0SFs6.s:144    .text:0000000000000068 .L0 
     /tmp/ccV0SFs6.s:150    .text:000000000000006c .L0 
     /tmp/ccV0SFs6.s:151    .text:000000000000006c .L0 
     /tmp/ccV0SFs6.s:153    .text:0000000000000070 .L0 
     /tmp/ccV0SFs6.s:156    .text:0000000000000078 .L0 
     /tmp/ccV0SFs6.s:161    .text:0000000000000088 .L0 
     /tmp/ccV0SFs6.s:166    .text:0000000000000098 .L0 
     /tmp/ccV0SFs6.s:169    .text:00000000000000a0 .L0 
     /tmp/ccV0SFs6.s:172    .text:00000000000000a8 .L0 
     /tmp/ccV0SFs6.s:175    .text:00000000000000b0 .L0 
     /tmp/ccV0SFs6.s:176    .text:00000000000000b0 .L0 
     /tmp/ccV0SFs6.s:180    .text:00000000000000c0 .L0 
     /tmp/ccV0SFs6.s:181    .text:00000000000000c0 .L0 
GAS LISTING /tmp/ccV0SFs6.s 			page 27


     /tmp/ccV0SFs6.s:185    .text:00000000000000d0 .L0 
     /tmp/ccV0SFs6.s:186    .text:00000000000000d0 .L0 
     /tmp/ccV0SFs6.s:192    .text:00000000000000e4 .L0 
     /tmp/ccV0SFs6.s:193    .text:00000000000000e4 .L0 
     /tmp/ccV0SFs6.s:198    .text:00000000000000f4 .L0 
     /tmp/ccV0SFs6.s:203    .text:00000000000000f8 .L0 
     /tmp/ccV0SFs6.s:204    .text:00000000000000f8 .L0 
       src/Riscv.cpp:16     .text:00000000000000f8 .L0 
     /tmp/ccV0SFs6.s:214    .text:0000000000000100 .L0 
     /tmp/ccV0SFs6.s:215    .text:0000000000000100 .L0 
     /tmp/ccV0SFs6.s:216    .text:0000000000000100 .L0 
  src/../h/Riscv.hpp:84     .text:0000000000000100 .L0 
     /tmp/ccV0SFs6.s:224    .text:0000000000000108 .L0 
     /tmp/ccV0SFs6.s:225    .text:0000000000000108 .L0 
     /tmp/ccV0SFs6.s:229    .text:000000000000010c .L0 
     /tmp/ccV0SFs6.s:231    .text:0000000000000110 .L0 
     /tmp/ccV0SFs6.s:235    .text:0000000000000114 .L0 
     /tmp/ccV0SFs6.s:236    .text:0000000000000114 .L0 
     /tmp/ccV0SFs6.s:237    .text:0000000000000114 .L0 
  src/../h/Riscv.hpp:140    .text:0000000000000114 .L0 
     /tmp/ccV0SFs6.s:245    .text:000000000000011c .L0 
     /tmp/ccV0SFs6.s:246    .text:000000000000011c .L0 
     /tmp/ccV0SFs6.s:250    .text:0000000000000120 .L0 
     /tmp/ccV0SFs6.s:253    .text:0000000000000124 .L0 
     /tmp/ccV0SFs6.s:254    .text:0000000000000124 .L0 
     /tmp/ccV0SFs6.s:338    .text:000000000000014c .L0 
     /tmp/ccV0SFs6.s:340    .text:000000000000014c .L0 
     /tmp/ccV0SFs6.s:341    .text:000000000000014c .L0 
     /tmp/ccV0SFs6.s:342    .text:000000000000014c .L0 
       src/Riscv.cpp:25     .text:000000000000014c .L0 
     /tmp/ccV0SFs6.s:349    .text:0000000000000150 .L0 
     /tmp/ccV0SFs6.s:351    .text:0000000000000150 .L0 
     /tmp/ccV0SFs6.s:354    .text:0000000000000158 .L0 
       src/Riscv.cpp:27     .text:0000000000000158 .L0 
     /tmp/ccV0SFs6.s:360    .text:000000000000015c .L0 
       src/Riscv.cpp:28     .text:000000000000015c .L0 
     /tmp/ccV0SFs6.s:371    .text:0000000000000160 .L0 
     /tmp/ccV0SFs6.s:372    .text:0000000000000160 .L0 
     /tmp/ccV0SFs6.s:373    .text:0000000000000160 .L0 
     /tmp/ccV0SFs6.s:378    .text:0000000000000164 .L0 
  src/../h/Riscv.hpp:89     .text:0000000000000164 .L0 
     /tmp/ccV0SFs6.s:388    .text:0000000000000168 .L0 
     /tmp/ccV0SFs6.s:389    .text:0000000000000168 .L0 
     /tmp/ccV0SFs6.s:394    .text:000000000000016c .L0 
  src/../h/Riscv.hpp:145    .text:000000000000016c .L0 
     /tmp/ccV0SFs6.s:407    .text:0000000000000170 .L0 
     /tmp/ccV0SFs6.s:408    .text:0000000000000174 .L0 
     /tmp/ccV0SFs6.s:409    .text:0000000000000174 .L0 
     /tmp/ccV0SFs6.s:411    .text:0000000000000178 .L0 
     /tmp/ccV0SFs6.s:412    .text:0000000000000178 .L0 
     /tmp/ccV0SFs6.s:414    .text:000000000000017c .L0 
     /tmp/ccV0SFs6.s:416    .text:0000000000000180 .L0 
     /tmp/ccV0SFs6.s:418    .text:0000000000000184 .L0 
     /tmp/ccV0SFs6.s:422    .text:0000000000000188 .L0 
     /tmp/ccV0SFs6.s:428    .text:0000000000000188 .L0 
     /tmp/ccV0SFs6.s:430    .text:0000000000000188 .L0 
     /tmp/ccV0SFs6.s:431    .text:0000000000000188 .L0 
GAS LISTING /tmp/ccV0SFs6.s 			page 28


     /tmp/ccV0SFs6.s:432    .text:0000000000000188 .L0 
       src/Riscv.cpp:35     .text:0000000000000188 .L0 
     /tmp/ccV0SFs6.s:439    .text:000000000000018c .L0 
     /tmp/ccV0SFs6.s:441    .text:000000000000018c .L0 
     /tmp/ccV0SFs6.s:444    .text:0000000000000194 .L0 
       src/Riscv.cpp:37     .text:0000000000000194 .L0 
     /tmp/ccV0SFs6.s:451    .text:0000000000000198 .L0 
     /tmp/ccV0SFs6.s:456    .text:000000000000019c .L0 
     /tmp/ccV0SFs6.s:458    .text:000000000000019c .L0 
     /tmp/ccV0SFs6.s:459    .text:000000000000019c .L0 
     /tmp/ccV0SFs6.s:460    .text:000000000000019c .L0 
     /tmp/ccV0SFs6.s:461    .text:000000000000019c .L0 
     /tmp/ccV0SFs6.s:462    .text:000000000000019c .L0 
     /tmp/ccV0SFs6.s:463    .text:000000000000019c .L0 
       src/Riscv.cpp:47     .text:000000000000019c .L0 
     /tmp/ccV0SFs6.s:470    .text:00000000000001a0 .L0 
       src/Riscv.cpp:48     .text:00000000000001a0 .L0 
     /tmp/ccV0SFs6.s:476    .text:00000000000001a4 .L0 
       src/Riscv.cpp:49     .text:00000000000001a4 .L0 
     /tmp/ccV0SFs6.s:482    .text:00000000000001a8 .L0 
       src/Riscv.cpp:50     .text:00000000000001a8 .L0 
     /tmp/ccV0SFs6.s:488    .text:00000000000001ac .L0 
     /tmp/ccV0SFs6.s:490    .text:00000000000001ac .L0 
     /tmp/ccV0SFs6.s:493    .text:00000000000001b4 .L0 
     /tmp/ccV0SFs6.s:495    .text:00000000000001b8 .L0 
       src/Riscv.cpp:53     .text:00000000000001b8 .L0 
     /tmp/ccV0SFs6.s:502    .text:00000000000001bc .L0 
     /tmp/ccV0SFs6.s:507    .text:00000000000001c0 .L0 
     /tmp/ccV0SFs6.s:509    .text:00000000000001c0 .L0 
     /tmp/ccV0SFs6.s:510    .text:00000000000001c0 .L0 
     /tmp/ccV0SFs6.s:511    .text:00000000000001c0 .L0 
     /tmp/ccV0SFs6.s:514    .text:00000000000001c8 .L0 
       src/Riscv.cpp:59     .text:00000000000001c8 .L0 
     /tmp/ccV0SFs6.s:521    .text:00000000000001cc .L0 
     /tmp/ccV0SFs6.s:526    .text:00000000000001d0 .L0 
     /tmp/ccV0SFs6.s:527    .text:00000000000001d0 .L0 
     /tmp/ccV0SFs6.s:528    .text:00000000000001d0 .L0 
     /tmp/ccV0SFs6.s:529    .text:00000000000001d0 .L0 
     /tmp/ccV0SFs6.s:532    .text:00000000000001d8 .L0 
     /tmp/ccV0SFs6.s:535    .text:00000000000001dc .L0 
     /tmp/ccV0SFs6.s:537    .text:00000000000001dc .L0 
     /tmp/ccV0SFs6.s:538    .text:00000000000001dc .L0 
     /tmp/ccV0SFs6.s:539    .text:00000000000001dc .L0 
     /tmp/ccV0SFs6.s:540    .text:00000000000001dc .L0 
       src/Riscv.cpp:71     .text:00000000000001dc .L0 
     /tmp/ccV0SFs6.s:547    .text:00000000000001e0 .L0 
       src/Riscv.cpp:72     .text:00000000000001e0 .L0 
     /tmp/ccV0SFs6.s:553    .text:00000000000001e4 .L0 
     /tmp/ccV0SFs6.s:555    .text:00000000000001e4 .L0 
     /tmp/ccV0SFs6.s:559    .text:00000000000001f0 .L0 
     /tmp/ccV0SFs6.s:561    .text:00000000000001f4 .L0 
       src/Riscv.cpp:75     .text:00000000000001f4 .L0 
     /tmp/ccV0SFs6.s:570    .text:00000000000001fc .L0 
       src/Riscv.cpp:77     .text:00000000000001fc .L0 
     /tmp/ccV0SFs6.s:580    .text:0000000000000204 .L0 
     /tmp/ccV0SFs6.s:582    .text:0000000000000204 .L0 
     /tmp/ccV0SFs6.s:583    .text:0000000000000204 .L0 
GAS LISTING /tmp/ccV0SFs6.s 			page 29


     /tmp/ccV0SFs6.s:584    .text:0000000000000204 .L0 
       src/Riscv.cpp:83     .text:0000000000000204 .L0 
     /tmp/ccV0SFs6.s:591    .text:0000000000000208 .L0 
     /tmp/ccV0SFs6.s:593    .text:0000000000000208 .L0 
     /tmp/ccV0SFs6.s:599    .text:0000000000000218 .L0 
     /tmp/ccV0SFs6.s:600    .text:0000000000000218 .L0 
     /tmp/ccV0SFs6.s:602    .text:000000000000021c .L0 
     /tmp/ccV0SFs6.s:610    .text:0000000000000234 .L0 
       src/Riscv.cpp:86     .text:0000000000000234 .L0 
     /tmp/ccV0SFs6.s:617    .text:0000000000000238 .L0 
     /tmp/ccV0SFs6.s:622    .text:000000000000023c .L0 
     /tmp/ccV0SFs6.s:624    .text:000000000000023c .L0 
     /tmp/ccV0SFs6.s:625    .text:000000000000023c .L0 
     /tmp/ccV0SFs6.s:626    .text:000000000000023c .L0 
       src/Riscv.cpp:92     .text:000000000000023c .L0 
     /tmp/ccV0SFs6.s:633    .text:0000000000000240 .L0 
     /tmp/ccV0SFs6.s:635    .text:0000000000000240 .L0 
     /tmp/ccV0SFs6.s:638    .text:0000000000000248 .L0 
       src/Riscv.cpp:94     .text:0000000000000248 .L0 
     /tmp/ccV0SFs6.s:645    .text:000000000000024c .L0 
     /tmp/ccV0SFs6.s:650    .text:0000000000000250 .L0 
     /tmp/ccV0SFs6.s:652    .text:0000000000000250 .L0 
     /tmp/ccV0SFs6.s:653    .text:0000000000000250 .L0 
     /tmp/ccV0SFs6.s:654    .text:0000000000000250 .L0 
       src/Riscv.cpp:100    .text:0000000000000250 .L0 
     /tmp/ccV0SFs6.s:661    .text:0000000000000254 .L0 
     /tmp/ccV0SFs6.s:663    .text:0000000000000254 .L0 
     /tmp/ccV0SFs6.s:666    .text:000000000000025c .L0 
       src/Riscv.cpp:102    .text:000000000000025c .L0 
     /tmp/ccV0SFs6.s:673    .text:0000000000000260 .L0 
     /tmp/ccV0SFs6.s:678    .text:0000000000000264 .L0 
     /tmp/ccV0SFs6.s:680    .text:0000000000000264 .L0 
     /tmp/ccV0SFs6.s:681    .text:0000000000000264 .L0 
     /tmp/ccV0SFs6.s:682    .text:0000000000000264 .L0 
       src/Riscv.cpp:108    .text:0000000000000264 .L0 
     /tmp/ccV0SFs6.s:689    .text:0000000000000268 .L0 
     /tmp/ccV0SFs6.s:691    .text:0000000000000268 .L0 
     /tmp/ccV0SFs6.s:694    .text:0000000000000270 .L0 
       src/Riscv.cpp:110    .text:0000000000000270 .L0 
     /tmp/ccV0SFs6.s:701    .text:0000000000000274 .L0 
     /tmp/ccV0SFs6.s:706    .text:0000000000000278 .L0 
     /tmp/ccV0SFs6.s:708    .text:0000000000000278 .L0 
     /tmp/ccV0SFs6.s:709    .text:0000000000000278 .L0 
     /tmp/ccV0SFs6.s:710    .text:0000000000000278 .L0 
     /tmp/ccV0SFs6.s:713    .text:0000000000000280 .L0 
       src/Riscv.cpp:116    .text:0000000000000280 .L0 
     /tmp/ccV0SFs6.s:719    .text:0000000000000284 .L0 
       src/Riscv.cpp:117    .text:0000000000000284 .L0 
     /tmp/ccV0SFs6.s:725    .text:0000000000000288 .L0 
     /tmp/ccV0SFs6.s:730    .text:000000000000028c .L0 
     /tmp/ccV0SFs6.s:732    .text:000000000000028c .L0 
     /tmp/ccV0SFs6.s:733    .text:000000000000028c .L0 
     /tmp/ccV0SFs6.s:734    .text:000000000000028c .L0 
       src/Riscv.cpp:123    .text:000000000000028c .L0 
     /tmp/ccV0SFs6.s:741    .text:0000000000000290 .L0 
     /tmp/ccV0SFs6.s:743    .text:0000000000000290 .L0 
     /tmp/ccV0SFs6.s:747    .text:000000000000029c .L0 
GAS LISTING /tmp/ccV0SFs6.s 			page 30


     /tmp/ccV0SFs6.s:754    .text:00000000000002a0 .L0 
     /tmp/ccV0SFs6.s:755    .text:00000000000002a0 .L0 
     /tmp/ccV0SFs6.s:763    .text:00000000000002ac .L0 
     /tmp/ccV0SFs6.s:764    .text:00000000000002ac .L0 
     /tmp/ccV0SFs6.s:765    .text:00000000000002ac .L0 
     /tmp/ccV0SFs6.s:772    .text:00000000000002b4 .L0 
     /tmp/ccV0SFs6.s:778    .text:00000000000002b8 .L0 
     /tmp/ccV0SFs6.s:779    .text:00000000000002b8 .L0 
     /tmp/ccV0SFs6.s:784    .text:00000000000002c8 .L0 
     /tmp/ccV0SFs6.s:785    .text:00000000000002c8 .L0 
     /tmp/ccV0SFs6.s:788    .text:00000000000002cc .L0 
     /tmp/ccV0SFs6.s:789    .text:00000000000002cc .L0 
     /tmp/ccV0SFs6.s:794    .text:00000000000002dc .L0 
     /tmp/ccV0SFs6.s:795    .text:00000000000002dc .L0 
     /tmp/ccV0SFs6.s:798    .text:00000000000002e0 .L0 
     /tmp/ccV0SFs6.s:799    .text:00000000000002e0 .L0 
     /tmp/ccV0SFs6.s:804    .text:00000000000002f0 .L0 
     /tmp/ccV0SFs6.s:805    .text:00000000000002f0 .L0 
     /tmp/ccV0SFs6.s:807    .text:00000000000002f4 .L0 
     /tmp/ccV0SFs6.s:818    .text:00000000000002f4 .L0 
     /tmp/ccV0SFs6.s:26     .text:000000000000000c .L0 
     /tmp/ccV0SFs6.s:102    .rodata.str1.8:0000000000000058 .LC3
     /tmp/ccV0SFs6.s:176    .text:00000000000000b0 .L0 
     /tmp/ccV0SFs6.s:105    .rodata.str1.8:0000000000000070 .LC4
     /tmp/ccV0SFs6.s:181    .text:00000000000000c0 .L0 
     /tmp/ccV0SFs6.s:108    .rodata.str1.8:0000000000000078 .LC5
     /tmp/ccV0SFs6.s:193    .text:00000000000000e4 .L0 
     /tmp/ccV0SFs6.s:266    .rodata:0000000000000000 .L10
     /tmp/ccV0SFs6.s:258    .text:0000000000000134 .L0 
     /tmp/ccV0SFs6.s:93     .rodata.str1.8:0000000000000000 .LC0
     /tmp/ccV0SFs6.s:779    .text:00000000000002b8 .L0 
     /tmp/ccV0SFs6.s:96     .rodata.str1.8:0000000000000020 .LC1
     /tmp/ccV0SFs6.s:789    .text:00000000000002cc .L0 
     /tmp/ccV0SFs6.s:99     .rodata.str1.8:0000000000000040 .LC2
     /tmp/ccV0SFs6.s:799    .text:00000000000002e0 .L0 
     /tmp/ccV0SFs6.s:70     .text:000000000000003c .L5
     /tmp/ccV0SFs6.s:47     .text:0000000000000028 .L3
     /tmp/ccV0SFs6.s:199    .text:00000000000000f8 .L34
     /tmp/ccV0SFs6.s:748    .text:00000000000002a0 .L35
     /tmp/ccV0SFs6.s:758    .text:00000000000002ac .L36
     /tmp/ccV0SFs6.s:774    .text:00000000000002b8 .L37
     /tmp/ccV0SFs6.s:786    .text:00000000000002cc .L38
     /tmp/ccV0SFs6.s:796    .text:00000000000002e0 .L39
     /tmp/ccV0SFs6.s:401    .text:0000000000000170 .L6
     /tmp/ccV0SFs6.s:367    .text:0000000000000160 .L8
     /tmp/ccV0SFs6.s:568    .text:00000000000001fc .L22
     /tmp/ccV0SFs6.s:608    .text:0000000000000234 .L23
     /tmp/ccV0SFs6.s:782    .text:00000000000002c8 .L28
     /tmp/ccV0SFs6.s:792    .text:00000000000002dc .L30
     /tmp/ccV0SFs6.s:802    .text:00000000000002f0 .L32
     /tmp/ccV0SFs6.s:335    .text:000000000000014c .L21
     /tmp/ccV0SFs6.s:421    .text:0000000000000188 .L20
     /tmp/ccV0SFs6.s:453    .text:000000000000019c .L19
     /tmp/ccV0SFs6.s:504    .text:00000000000001c0 .L18
     /tmp/ccV0SFs6.s:523    .text:00000000000001d0 .L17
     /tmp/ccV0SFs6.s:533    .text:00000000000001dc .L16
     /tmp/ccV0SFs6.s:577    .text:0000000000000204 .L15
GAS LISTING /tmp/ccV0SFs6.s 			page 31


     /tmp/ccV0SFs6.s:619    .text:000000000000023c .L14
     /tmp/ccV0SFs6.s:647    .text:0000000000000250 .L13
     /tmp/ccV0SFs6.s:675    .text:0000000000000264 .L12
     /tmp/ccV0SFs6.s:703    .text:0000000000000278 .L11
     /tmp/ccV0SFs6.s:727    .text:000000000000028c .L9
     /tmp/ccV0SFs6.s:2660   .debug_abbrev:0000000000000000 .Ldebug_abbrev0
     /tmp/ccV0SFs6.s:4231   .debug_str:00000000000008e0 .LASF184
     /tmp/ccV0SFs6.s:3967   .debug_str:00000000000001b0 .LASF185
     /tmp/ccV0SFs6.s:4039   .debug_str:00000000000003e5 .LASF186
     /tmp/ccV0SFs6.s:5      .text:0000000000000000 .Ltext0
     /tmp/ccV0SFs6.s:810    .text:00000000000002f4 .Letext0
     /tmp/ccV0SFs6.s:3909   .debug_line:0000000000000000 .Ldebug_line0
     /tmp/ccV0SFs6.s:4037   .debug_str:00000000000003d8 .LASF0
     /tmp/ccV0SFs6.s:4067   .debug_str:00000000000004b6 .LASF1
     /tmp/ccV0SFs6.s:4161   .debug_str:000000000000073f .LASF2
     /tmp/ccV0SFs6.s:4171   .debug_str:0000000000000787 .LASF4
     /tmp/ccV0SFs6.s:4047   .debug_str:0000000000000422 .LASF3
     /tmp/ccV0SFs6.s:3923   .debug_str:000000000000006b .LASF5
     /tmp/ccV0SFs6.s:4131   .debug_str:0000000000000655 .LASF6
     /tmp/ccV0SFs6.s:4055   .debug_str:0000000000000469 .LASF7
     /tmp/ccV0SFs6.s:4011   .debug_str:000000000000031b .LASF8
     /tmp/ccV0SFs6.s:4019   .debug_str:0000000000000363 .LASF9
     /tmp/ccV0SFs6.s:3951   .debug_str:0000000000000138 .LASF10
     /tmp/ccV0SFs6.s:4005   .debug_str:00000000000002ec .LASF11
     /tmp/ccV0SFs6.s:3969   .debug_str:00000000000001be .LASF12
     /tmp/ccV0SFs6.s:3949   .debug_str:0000000000000128 .LASF13
     /tmp/ccV0SFs6.s:4211   .debug_str:0000000000000886 .LASF14
     /tmp/ccV0SFs6.s:3989   .debug_str:0000000000000252 .LASF15
     /tmp/ccV0SFs6.s:4195   .debug_str:0000000000000810 .LASF16
     /tmp/ccV0SFs6.s:4185   .debug_str:00000000000007cc .LASF52
     /tmp/ccV0SFs6.s:4065   .debug_str:00000000000004b1 .LASF17
     /tmp/ccV0SFs6.s:3953   .debug_str:0000000000000147 .LASF18
     /tmp/ccV0SFs6.s:3933   .debug_str:00000000000000bd .LASF19
     /tmp/ccV0SFs6.s:4033   .debug_str:00000000000003cb .LASF20
     /tmp/ccV0SFs6.s:4083   .debug_str:0000000000000511 .LASF21
     /tmp/ccV0SFs6.s:4127   .debug_str:0000000000000639 .LASF28
     /tmp/ccV0SFs6.s:3931   .debug_str:00000000000000a4 .LASF30
     /tmp/ccV0SFs6.s:4139   .debug_str:0000000000000699 .LASF22
     /tmp/ccV0SFs6.s:4089   .debug_str:0000000000000528 .LASF23
     /tmp/ccV0SFs6.s:3935   .debug_str:00000000000000c2 .LASF77
     /tmp/ccV0SFs6.s:4299   .debug_str:0000000000000b96 .LASF79
     /tmp/ccV0SFs6.s:4097   .debug_str:0000000000000566 .LASF24
     /tmp/ccV0SFs6.s:3927   .debug_str:000000000000007d .LASF26
     /tmp/ccV0SFs6.s:4219   .debug_str:00000000000008a7 .LASF25
     /tmp/ccV0SFs6.s:4099   .debug_str:0000000000000570 .LASF27
     /tmp/ccV0SFs6.s:4045   .debug_str:0000000000000418 .LASF29
     /tmp/ccV0SFs6.s:4125   .debug_str:000000000000060b .LASF31
     /tmp/ccV0SFs6.s:4093   .debug_str:0000000000000542 .LASF187
     /tmp/ccV0SFs6.s:4263   .debug_str:0000000000000a7f .LASF32
     /tmp/ccV0SFs6.s:4249   .debug_str:0000000000000a2b .LASF188
     /tmp/ccV0SFs6.s:4203   .debug_str:0000000000000859 .LASF33
     /tmp/ccV0SFs6.s:4107   .debug_str:00000000000005b5 .LASF34
     /tmp/ccV0SFs6.s:4101   .debug_str:0000000000000591 .LASF35
     /tmp/ccV0SFs6.s:4197   .debug_str:0000000000000826 .LASF36
     /tmp/ccV0SFs6.s:4003   .debug_str:00000000000002d5 .LASF42
     /tmp/ccV0SFs6.s:4165   .debug_str:000000000000075a .LASF189
     /tmp/ccV0SFs6.s:4155   .debug_str:0000000000000714 .LASF190
GAS LISTING /tmp/ccV0SFs6.s 			page 32


     /tmp/ccV0SFs6.s:4061   .debug_str:000000000000049a .LASF37
     /tmp/ccV0SFs6.s:3941   .debug_str:00000000000000e6 .LASF38
     /tmp/ccV0SFs6.s:4077   .debug_str:00000000000004ea .LASF39
     /tmp/ccV0SFs6.s:3991   .debug_str:0000000000000268 .LASF40
     /tmp/ccV0SFs6.s:4129   .debug_str:0000000000000649 .LASF41
     /tmp/ccV0SFs6.s:4265   .debug_str:0000000000000a89 .LASF43
     /tmp/ccV0SFs6.s:4183   .debug_str:00000000000007c1 .LASF44
     /tmp/ccV0SFs6.s:4053   .debug_str:000000000000044c .LASF45
     /tmp/ccV0SFs6.s:4307   .debug_str:0000000000000bce .LASF46
     /tmp/ccV0SFs6.s:4295   .debug_str:0000000000000b6f .LASF47
     /tmp/ccV0SFs6.s:4153   .debug_str:000000000000070b .LASF48
     /tmp/ccV0SFs6.s:3917   .debug_str:000000000000001d .LASF49
     /tmp/ccV0SFs6.s:4179   .debug_str:00000000000007ad .LASF50
     /tmp/ccV0SFs6.s:4147   .debug_str:00000000000006ca .LASF51
     /tmp/ccV0SFs6.s:3959   .debug_str:0000000000000169 .LASF53
     /tmp/ccV0SFs6.s:4301   .debug_str:0000000000000bb2 .LASF54
     /tmp/ccV0SFs6.s:4015   .debug_str:000000000000033b .LASF55
     /tmp/ccV0SFs6.s:3913   .debug_str:0000000000000005 .LASF56
     /tmp/ccV0SFs6.s:4115   .debug_str:00000000000005d5 .LASF57
     /tmp/ccV0SFs6.s:4091   .debug_str:0000000000000532 .LASF58
     /tmp/ccV0SFs6.s:4009   .debug_str:000000000000030f .LASF59
     /tmp/ccV0SFs6.s:4193   .debug_str:00000000000007fd .LASF60
     /tmp/ccV0SFs6.s:4163   .debug_str:000000000000074d .LASF61
     /tmp/ccV0SFs6.s:4173   .debug_str:000000000000078e .LASF62
     /tmp/ccV0SFs6.s:3921   .debug_str:000000000000005f .LASF63
     /tmp/ccV0SFs6.s:4293   .debug_str:0000000000000b59 .LASF191
     /tmp/ccV0SFs6.s:4123   .debug_str:0000000000000606 .LASF192
     /tmp/ccV0SFs6.s:4221   .debug_str:00000000000008b0 .LASF64
     /tmp/ccV0SFs6.s:4103   .debug_str:0000000000000596 .LASF65
     /tmp/ccV0SFs6.s:3937   .debug_str:00000000000000c7 .LASF66
     /tmp/ccV0SFs6.s:4241   .debug_str:00000000000009e5 .LASF67
     /tmp/ccV0SFs6.s:4281   .debug_str:0000000000000b1b .LASF68
     /tmp/ccV0SFs6.s:3945   .debug_str:0000000000000108 .LASF69
     /tmp/ccV0SFs6.s:4223   .debug_str:00000000000008bb .LASF70
     /tmp/ccV0SFs6.s:3963   .debug_str:0000000000000184 .LASF71
     /tmp/ccV0SFs6.s:4043   .debug_str:000000000000040d .LASF83
     /tmp/ccV0SFs6.s:4187   .debug_str:00000000000007d8 .LASF85
     /tmp/ccV0SFs6.s:4209   .debug_str:0000000000000879 .LASF72
     /tmp/ccV0SFs6.s:4277   .debug_str:0000000000000aea .LASF73
     /tmp/ccV0SFs6.s:4227   .debug_str:00000000000008cb .LASF74
     /tmp/ccV0SFs6.s:4255   .debug_str:0000000000000a55 .LASF75
     /tmp/ccV0SFs6.s:4247   .debug_str:0000000000000a18 .LASF76
     /tmp/ccV0SFs6.s:4069   .debug_str:00000000000004c9 .LASF78
     /tmp/ccV0SFs6.s:4235   .debug_str:00000000000009b8 .LASF80
     /tmp/ccV0SFs6.s:3979   .debug_str:0000000000000214 .LASF81
     /tmp/ccV0SFs6.s:3961   .debug_str:0000000000000171 .LASF82
     /tmp/ccV0SFs6.s:4189   .debug_str:00000000000007ee .LASF84
     /tmp/ccV0SFs6.s:4051   .debug_str:000000000000043d .LASF86
     /tmp/ccV0SFs6.s:3911   .debug_str:0000000000000000 .LASF87
     /tmp/ccV0SFs6.s:4085   .debug_str:0000000000000516 .LASF88
     /tmp/ccV0SFs6.s:4237   .debug_str:00000000000009c8 .LASF89
     /tmp/ccV0SFs6.s:4217   .debug_str:000000000000089e .LASF90
     /tmp/ccV0SFs6.s:4117   .debug_str:00000000000005e2 .LASF91
     /tmp/ccV0SFs6.s:3973   .debug_str:00000000000001e8 .LASF193
     /tmp/ccV0SFs6.s:3919   .debug_str:0000000000000037 .LASF194
     /tmp/ccV0SFs6.s:4169   .debug_str:000000000000077c .LASF92
     /tmp/ccV0SFs6.s:4259   .debug_str:0000000000000a62 .LASF93
GAS LISTING /tmp/ccV0SFs6.s 			page 33


     /tmp/ccV0SFs6.s:4181   .debug_str:00000000000007b5 .LASF94
     /tmp/ccV0SFs6.s:4233   .debug_str:00000000000009a4 .LASF95
     /tmp/ccV0SFs6.s:3981   .debug_str:000000000000021d .LASF96
     /tmp/ccV0SFs6.s:4271   .debug_str:0000000000000ab7 .LASF97
     /tmp/ccV0SFs6.s:4213   .debug_str:0000000000000892 .LASF98
     /tmp/ccV0SFs6.s:4199   .debug_str:0000000000000839 .LASF99
     /tmp/ccV0SFs6.s:3929   .debug_str:000000000000009e .LASF100
     /tmp/ccV0SFs6.s:4081   .debug_str:00000000000004f9 .LASF101
     /tmp/ccV0SFs6.s:4071   .debug_str:00000000000004cf .LASF102
     /tmp/ccV0SFs6.s:4141   .debug_str:00000000000006a2 .LASF103
     /tmp/ccV0SFs6.s:4035   .debug_str:00000000000003d2 .LASF104
     /tmp/ccV0SFs6.s:4023   .debug_str:000000000000037c .LASF105
     /tmp/ccV0SFs6.s:3915   .debug_str:0000000000000015 .LASF106
     /tmp/ccV0SFs6.s:3971   .debug_str:00000000000001ce .LASF107
     /tmp/ccV0SFs6.s:4191   .debug_str:00000000000007f3 .LASF108
     /tmp/ccV0SFs6.s:4253   .debug_str:0000000000000a35 .LASF109
     /tmp/ccV0SFs6.s:4025   .debug_str:0000000000000394 .LASF110
     /tmp/ccV0SFs6.s:4297   .debug_str:0000000000000b8a .LASF111
     /tmp/ccV0SFs6.s:4261   .debug_str:0000000000000a76 .LASF112
     /tmp/ccV0SFs6.s:4289   .debug_str:0000000000000b47 .LASF113
     /tmp/ccV0SFs6.s:3947   .debug_str:000000000000011d .LASF195
     /tmp/ccV0SFs6.s:4075   .debug_str:00000000000004df .LASF114
     /tmp/ccV0SFs6.s:4287   .debug_str:0000000000000b36 .LASF115
     /tmp/ccV0SFs6.s:4149   .debug_str:00000000000006e3 .LASF116
     /tmp/ccV0SFs6.s:4243   .debug_str:00000000000009fc .LASF117
     /tmp/ccV0SFs6.s:3983   .debug_str:0000000000000222 .LASF118
     /tmp/ccV0SFs6.s:4113   .debug_str:00000000000005cf .LASF119
     /tmp/ccV0SFs6.s:4111   .debug_str:00000000000005c1 .LASF120
     /tmp/ccV0SFs6.s:4267   .debug_str:0000000000000aa7 .LASF121
     /tmp/ccV0SFs6.s:3997   .debug_str:00000000000002ab .LASF125
     /tmp/ccV0SFs6.s:3975   .debug_str:00000000000001f6 .LASF122
     /tmp/ccV0SFs6.s:4001   .debug_str:00000000000002c9 .LASF123
     /tmp/ccV0SFs6.s:4229   .debug_str:00000000000008d3 .LASF124
     /tmp/ccV0SFs6.s:4059   .debug_str:000000000000048f .LASF126
     /tmp/ccV0SFs6.s:4049   .debug_str:0000000000000434 .LASF127
     /tmp/ccV0SFs6.s:4285   .debug_str:0000000000000b2d .LASF128
     /tmp/ccV0SFs6.s:4137   .debug_str:0000000000000684 .LASF129
     /tmp/ccV0SFs6.s:3995   .debug_str:0000000000000289 .LASF130
     /tmp/ccV0SFs6.s:4279   .debug_str:0000000000000b0c .LASF131
     /tmp/ccV0SFs6.s:4017   .debug_str:0000000000000347 .LASF132
     /tmp/ccV0SFs6.s:4021   .debug_str:0000000000000371 .LASF133
     /tmp/ccV0SFs6.s:4031   .debug_str:00000000000003b3 .LASF134
     /tmp/ccV0SFs6.s:4245   .debug_str:0000000000000a0f .LASF135
     /tmp/ccV0SFs6.s:4239   .debug_str:00000000000009d0 .LASF136
     /tmp/ccV0SFs6.s:4157   .debug_str:000000000000072b .LASF137
     /tmp/ccV0SFs6.s:4119   .debug_str:00000000000005ea .LASF138
     /tmp/ccV0SFs6.s:4145   .debug_str:00000000000006c3 .LASF139
     /tmp/ccV0SFs6.s:3939   .debug_str:00000000000000d3 .LASF140
     /tmp/ccV0SFs6.s:4109   .debug_str:00000000000005ba .LASF141
     /tmp/ccV0SFs6.s:4057   .debug_str:000000000000047c .LASF142
     /tmp/ccV0SFs6.s:4283   .debug_str:0000000000000b25 .LASF143
     /tmp/ccV0SFs6.s:4207   .debug_str:0000000000000865 .LASF144
     /tmp/ccV0SFs6.s:4105   .debug_str:00000000000005ad .LASF145
     /tmp/ccV0SFs6.s:4007   .debug_str:00000000000002fb .LASF146
     /tmp/ccV0SFs6.s:4073   .debug_str:00000000000004d7 .LASF147
     /tmp/ccV0SFs6.s:4151   .debug_str:00000000000006f7 .LASF148
     /tmp/ccV0SFs6.s:4305   .debug_str:0000000000000bc6 .LASF149
GAS LISTING /tmp/ccV0SFs6.s 			page 34


     /tmp/ccV0SFs6.s:4275   .debug_str:0000000000000ad6 .LASF150
     /tmp/ccV0SFs6.s:4205   .debug_str:000000000000085e .LASF151
     /tmp/ccV0SFs6.s:4175   .debug_str:0000000000000793 .LASF152
     /tmp/ccV0SFs6.s:4177   .debug_str:00000000000007a6 .LASF153
     /tmp/ccV0SFs6.s:3957   .debug_str:0000000000000156 .LASF154
     /tmp/ccV0SFs6.s:3987   .debug_str:000000000000024c .LASF155
     /tmp/ccV0SFs6.s:4029   .debug_str:00000000000003a1 .LASF156
     /tmp/ccV0SFs6.s:4041   .debug_str:0000000000000407 .LASF157
     /tmp/ccV0SFs6.s:3977   .debug_str:0000000000000202 .LASF158
     /tmp/ccV0SFs6.s:3925   .debug_str:0000000000000072 .LASF159
     /tmp/ccV0SFs6.s:4167   .debug_str:0000000000000764 .LASF160
     /tmp/ccV0SFs6.s:4159   .debug_str:0000000000000734 .LASF161
     /tmp/ccV0SFs6.s:3985   .debug_str:0000000000000234 .LASF162
     /tmp/ccV0SFs6.s:4269   .debug_str:0000000000000aad .LASF163
     /tmp/ccV0SFs6.s:3965   .debug_str:000000000000019a .LASF164
     /tmp/ccV0SFs6.s:3955   .debug_str:000000000000014c .LASF196
     /tmp/ccV0SFs6.s:4095   .debug_str:0000000000000550 .LASF197
     /tmp/ccV0SFs6.s:115    .text:0000000000000048 .LFB44
     /tmp/ccV0SFs6.s:808    .text:00000000000002f4 .LFE44
     /tmp/ccV0SFs6.s:4201   .debug_str:0000000000000852 .LASF165
     /tmp/ccV0SFs6.s:3691   .debug_loc:0000000000000000 .LLST1
     /tmp/ccV0SFs6.s:3901   .debug_ranges:0000000000000000 .Ldebug_ranges0
     /tmp/ccV0SFs6.s:3993   .debug_str:0000000000000284 .LASF166
     /tmp/ccV0SFs6.s:4251   .debug_str:0000000000000a30 .LASF167
     /tmp/ccV0SFs6.s:4273   .debug_str:0000000000000ace .LASF168
     /tmp/ccV0SFs6.s:339    .text:000000000000014c .LBB51
     /tmp/ccV0SFs6.s:368    .text:0000000000000160 .LBE51
     /tmp/ccV0SFs6.s:3710   .debug_loc:000000000000005c .LLST2
     /tmp/ccV0SFs6.s:3717   .debug_loc:000000000000007f .LLST3
     /tmp/ccV0SFs6.s:352    .text:0000000000000158 .LVL9
     /tmp/ccV0SFs6.s:429    .text:0000000000000188 .LBB52
     /tmp/ccV0SFs6.s:454    .text:000000000000019c .LBE52
     /tmp/ccV0SFs6.s:3943   .debug_str:0000000000000103 .LASF169
     /tmp/ccV0SFs6.s:3724   .debug_loc:00000000000000a2 .LLST4
     /tmp/ccV0SFs6.s:4303   .debug_str:0000000000000bbf .LASF170
     /tmp/ccV0SFs6.s:3731   .debug_loc:00000000000000c5 .LLST5
     /tmp/ccV0SFs6.s:442    .text:0000000000000194 .LVL17
     /tmp/ccV0SFs6.s:457    .text:000000000000019c .LBB53
     /tmp/ccV0SFs6.s:505    .text:00000000000001c0 .LBE53
     /tmp/ccV0SFs6.s:4143   .debug_str:00000000000006bc .LASF171
     /tmp/ccV0SFs6.s:3738   .debug_loc:00000000000000e8 .LLST6
     /tmp/ccV0SFs6.s:4063   .debug_str:00000000000004a3 .LASF172
     /tmp/ccV0SFs6.s:3745   .debug_loc:000000000000010b .LLST7
     /tmp/ccV0SFs6.s:4215   .debug_str:0000000000000899 .LASF173
     /tmp/ccV0SFs6.s:3752   .debug_loc:000000000000012e .LLST8
     /tmp/ccV0SFs6.s:4087   .debug_str:000000000000051c .LASF174
     /tmp/ccV0SFs6.s:3759   .debug_loc:0000000000000151 .LLST9
     /tmp/ccV0SFs6.s:491    .text:00000000000001b4 .LVL23
     /tmp/ccV0SFs6.s:508    .text:00000000000001c0 .LBB54
     /tmp/ccV0SFs6.s:524    .text:00000000000001d0 .LBE54
     /tmp/ccV0SFs6.s:3766   .debug_loc:0000000000000174 .LLST10
     /tmp/ccV0SFs6.s:512    .text:00000000000001c8 .LVL25
     /tmp/ccV0SFs6.s:536    .text:00000000000001dc .LBB55
     /tmp/ccV0SFs6.s:578    .text:0000000000000204 .LBE55
     /tmp/ccV0SFs6.s:3773   .debug_loc:0000000000000197 .LLST11
     /tmp/ccV0SFs6.s:3780   .debug_loc:00000000000001ba .LLST12
     /tmp/ccV0SFs6.s:557    .text:00000000000001f0 .LVL30
GAS LISTING /tmp/ccV0SFs6.s 			page 35


     /tmp/ccV0SFs6.s:581    .text:0000000000000204 .LBB56
     /tmp/ccV0SFs6.s:620    .text:000000000000023c .LBE56
     /tmp/ccV0SFs6.s:3787   .debug_loc:00000000000001dd .LLST13
     /tmp/ccV0SFs6.s:3794   .debug_loc:0000000000000200 .LLST14
     /tmp/ccV0SFs6.s:595    .text:0000000000000214 .LVL32
     /tmp/ccV0SFs6.s:604    .text:0000000000000228 .LVL34
     /tmp/ccV0SFs6.s:607    .text:0000000000000234 .LVL35
     /tmp/ccV0SFs6.s:623    .text:000000000000023c .LBB57
     /tmp/ccV0SFs6.s:648    .text:0000000000000250 .LBE57
     /tmp/ccV0SFs6.s:3801   .debug_loc:0000000000000223 .LLST15
     /tmp/ccV0SFs6.s:3808   .debug_loc:0000000000000246 .LLST16
     /tmp/ccV0SFs6.s:636    .text:0000000000000248 .LVL38
     /tmp/ccV0SFs6.s:651    .text:0000000000000250 .LBB58
     /tmp/ccV0SFs6.s:676    .text:0000000000000264 .LBE58
     /tmp/ccV0SFs6.s:3815   .debug_loc:0000000000000269 .LLST17
     /tmp/ccV0SFs6.s:3822   .debug_loc:000000000000028c .LLST18
     /tmp/ccV0SFs6.s:664    .text:000000000000025c .LVL41
     /tmp/ccV0SFs6.s:679    .text:0000000000000264 .LBB59
     /tmp/ccV0SFs6.s:704    .text:0000000000000278 .LBE59
     /tmp/ccV0SFs6.s:3829   .debug_loc:00000000000002af .LLST19
     /tmp/ccV0SFs6.s:3836   .debug_loc:00000000000002d2 .LLST20
     /tmp/ccV0SFs6.s:692    .text:0000000000000270 .LVL44
     /tmp/ccV0SFs6.s:707    .text:0000000000000278 .LBB60
     /tmp/ccV0SFs6.s:728    .text:000000000000028c .LBE60
     /tmp/ccV0SFs6.s:3843   .debug_loc:00000000000002f5 .LLST21
     /tmp/ccV0SFs6.s:711    .text:0000000000000280 .LVL46
     /tmp/ccV0SFs6.s:731    .text:000000000000028c .LBB61
     /tmp/ccV0SFs6.s:749    .text:00000000000002a0 .LBE61
     /tmp/ccV0SFs6.s:3850   .debug_loc:0000000000000318 .LLST22
     /tmp/ccV0SFs6.s:745    .text:000000000000029c .LVL49
     /tmp/ccV0SFs6.s:212    .text:0000000000000100 .LBB45
     /tmp/ccV0SFs6.s:227    .text:000000000000010c .LBE45
     /tmp/ccV0SFs6.s:233    .text:0000000000000114 .LBB47
     /tmp/ccV0SFs6.s:248    .text:0000000000000120 .LBE47
     /tmp/ccV0SFs6.s:375    .text:0000000000000164 .LBB63
     /tmp/ccV0SFs6.s:386    .text:0000000000000168 .LBE63
     /tmp/ccV0SFs6.s:3857   .debug_loc:000000000000033b .LLST23
     /tmp/ccV0SFs6.s:391    .text:000000000000016c .LBB65
     /tmp/ccV0SFs6.s:403    .text:0000000000000170 .LBE65
     /tmp/ccV0SFs6.s:3864   .debug_loc:000000000000035e .LLST24
     /tmp/ccV0SFs6.s:530    .text:00000000000001d8 .LVL27
     /tmp/ccV0SFs6.s:131    .text:0000000000000060 .LBB41
     /tmp/ccV0SFs6.s:147    .text:000000000000006c .LBE41
     /tmp/ccV0SFs6.s:761    .text:00000000000002ac .LBB69
     /tmp/ccV0SFs6.s:776    .text:00000000000002b8 .LBE69
     /tmp/ccV0SFs6.s:3871   .debug_loc:0000000000000381 .LLST25
     /tmp/ccV0SFs6.s:178    .text:00000000000000c0 .LVL4
     /tmp/ccV0SFs6.s:183    .text:00000000000000d0 .LVL5
     /tmp/ccV0SFs6.s:190    .text:00000000000000e4 .LVL6
     /tmp/ccV0SFs6.s:195    .text:00000000000000f4 .LVL7
     /tmp/ccV0SFs6.s:756    .text:00000000000002a8 .LVL50
     /tmp/ccV0SFs6.s:781    .text:00000000000002c8 .LVL53
     /tmp/ccV0SFs6.s:791    .text:00000000000002dc .LVL54
     /tmp/ccV0SFs6.s:801    .text:00000000000002f0 .LVL55
     /tmp/ccV0SFs6.s:4225   .debug_str:00000000000008c6 .LASF175
     /tmp/ccV0SFs6.s:10     .text:0000000000000000 .LFB43
     /tmp/ccV0SFs6.s:89     .text:0000000000000048 .LFE43
GAS LISTING /tmp/ccV0SFs6.s 			page 36


     /tmp/ccV0SFs6.s:21     .text:000000000000000c .LBB35
     /tmp/ccV0SFs6.s:30     .text:000000000000001c .LBE35
     /tmp/ccV0SFs6.s:35     .text:0000000000000020 .LBB37
     /tmp/ccV0SFs6.s:49     .text:0000000000000028 .LBE37
     /tmp/ccV0SFs6.s:3879   .debug_loc:00000000000003a5 .LLST0
     /tmp/ccV0SFs6.s:74     .text:000000000000003c .LBB39
     /tmp/ccV0SFs6.s:87     .text:0000000000000048 .LBE39
     /tmp/ccV0SFs6.s:4257   .debug_str:0000000000000a5d .LASF176
     /tmp/ccV0SFs6.s:4121   .debug_str:00000000000005ff .LASF198
     /tmp/ccV0SFs6.s:4027   .debug_str:000000000000039a .LASF177
     /tmp/ccV0SFs6.s:4079   .debug_str:00000000000004f2 .LASF178
     /tmp/ccV0SFs6.s:4135   .debug_str:0000000000000671 .LASF179
     /tmp/ccV0SFs6.s:4291   .debug_str:0000000000000b4d .LASF180
     /tmp/ccV0SFs6.s:3999   .debug_str:00000000000002ba .LASF181
     /tmp/ccV0SFs6.s:4133   .debug_str:0000000000000668 .LASF182
     /tmp/ccV0SFs6.s:4013   .debug_str:000000000000032b .LASF183
     /tmp/ccV0SFs6.s:145    .text:000000000000006c .LVL3
     /tmp/ccV0SFs6.s:365    .text:0000000000000160 .LVL10
     /tmp/ccV0SFs6.s:420    .text:0000000000000188 .LVL15
     /tmp/ccV0SFs6.s:468    .text:00000000000001a0 .LVL19
     /tmp/ccV0SFs6.s:503    .text:00000000000001c0 .LVL24
     /tmp/ccV0SFs6.s:589    .text:0000000000000208 .LVL31
     /tmp/ccV0SFs6.s:618    .text:000000000000023c .LVL36
     /tmp/ccV0SFs6.s:347    .text:0000000000000150 .LVL8
     /tmp/ccV0SFs6.s:437    .text:000000000000018c .LVL16
     /tmp/ccV0SFs6.s:452    .text:000000000000019c .LVL18
     /tmp/ccV0SFs6.s:474    .text:00000000000001a4 .LVL20
     /tmp/ccV0SFs6.s:480    .text:00000000000001a8 .LVL21
     /tmp/ccV0SFs6.s:486    .text:00000000000001ac .LVL22
     /tmp/ccV0SFs6.s:522    .text:00000000000001d0 .LVL26
     /tmp/ccV0SFs6.s:545    .text:00000000000001e0 .LVL28
     /tmp/ccV0SFs6.s:551    .text:00000000000001e4 .LVL29
     /tmp/ccV0SFs6.s:597    .text:0000000000000218 .LVL33
     /tmp/ccV0SFs6.s:631    .text:0000000000000240 .LVL37
     /tmp/ccV0SFs6.s:646    .text:0000000000000250 .LVL39
     /tmp/ccV0SFs6.s:659    .text:0000000000000254 .LVL40
     /tmp/ccV0SFs6.s:674    .text:0000000000000264 .LVL42
     /tmp/ccV0SFs6.s:687    .text:0000000000000268 .LVL43
     /tmp/ccV0SFs6.s:702    .text:0000000000000278 .LVL45
     /tmp/ccV0SFs6.s:726    .text:000000000000028c .LVL47
     /tmp/ccV0SFs6.s:739    .text:0000000000000290 .LVL48
     /tmp/ccV0SFs6.s:374    .text:0000000000000164 .LVL11
     /tmp/ccV0SFs6.s:383    .text:0000000000000168 .LVL12
     /tmp/ccV0SFs6.s:390    .text:000000000000016c .LVL13
     /tmp/ccV0SFs6.s:399    .text:0000000000000170 .LVL14
     /tmp/ccV0SFs6.s:760    .text:00000000000002ac .LVL51
     /tmp/ccV0SFs6.s:773    .text:00000000000002b8 .LVL52
     /tmp/ccV0SFs6.s:34     .text:0000000000000020 .LVL0
     /tmp/ccV0SFs6.s:45     .text:0000000000000028 .LVL1
     /tmp/ccV0SFs6.s:819    .debug_info:0000000000000000 .Ldebug_info0
     /tmp/ccV0SFs6.s:201    .text:00000000000000f8 .LBB44
     /tmp/ccV0SFs6.s:404    .text:0000000000000170 .LBE44
     /tmp/ccV0SFs6.s:424    .text:0000000000000188 .LBB68
     /tmp/ccV0SFs6.s:752    .text:00000000000002a0 .LBE68

UNDEFINED SYMBOLS
_ZN3TCB7runningE
GAS LISTING /tmp/ccV0SFs6.s 			page 37


_Z11printStringPKc
_Z8printIntiii
_ZN15MemoryAllocator9mem_allocEm
_ZN15MemoryAllocator8mem_freeEPv
_ZN3TCB12createThreadEPFvPvES0_Pm
_ZN3TCB4exitEv
_ZN3TCB8dispatchEv
_ZN10SemaphoreC9createSemEPPS_j
_ZN10SemaphoreC5closeEv
_ZN10SemaphoreCD1Ev
_ZdlPv
_ZN10SemaphoreC4waitEv
_ZN10SemaphoreC6signalEv
_ZN10SemaphoreC7tryWaitEv
__getc
__putc
console_handler
