GAS LISTING /tmp/ccWO9qyv.s 			page 1


   1              		.file	"TCB.cpp"
   2              		.option pic
   3              		.option norelax
   4              		.text
   5              	.Ltext0:
   6              		.align	2
   7              		.globl	_ZN3TCB7wrapperEPv
   9              	_ZN3TCB7wrapperEPv:
  10              	.LFB43:
  11              		.file 1 "src/TCB.cpp"
   1:src/TCB.cpp   **** #include "../h/TCB.hpp"
   2:src/TCB.cpp   **** 
   3:src/TCB.cpp   **** extern "C" void pushRegisters(); //da ne vrsi name mangling
   4:src/TCB.cpp   **** extern "C" void popRegisters();
   5:src/TCB.cpp   **** 
   6:src/TCB.cpp   **** TCB *TCB::running = nullptr;
   7:src/TCB.cpp   **** 
   8:src/TCB.cpp   **** void TCB::wrapper(void* b) { //pocetna funkcija koju izvrsava svaka nit nakon sto je kreirana
  12              		.loc 1 8 28
  13              		.cfi_startproc
  14              	.LVL0:
  15 0000 130101FF 		addi	sp,sp,-16
  16              		.cfi_def_cfa_offset 16
  17 0004 23341100 		sd	ra,8(sp)
  18 0008 23308100 		sd	s0,0(sp)
  19              		.cfi_offset 1, -8
  20              		.cfi_offset 8, -16
  21 000c 13040101 		addi	s0,sp,16
  22              		.cfi_def_cfa 8, 0
   9:src/TCB.cpp   ****     Riscv::popSppSpie(); //prelazi u odg mod
  23              		.loc 1 9 5
  24              		.loc 1 9 22 is_stmt 0
  25 0010 97000000 		call	_ZN5Riscv10popSppSpieEv@plt
  25      E7800000 
  26              	.LVL1:
  10:src/TCB.cpp   ****     running->body(running->arg); //izvrsava se kod niti
  27              		.loc 1 10 5 is_stmt 1
  28              		.loc 1 10 14 is_stmt 0
  29 0018 97070000 		ld	a5,.LANCHOR0
  29      83B70700 
  30 0020 03B70700 		ld	a4,0(a5)
  31              		.loc 1 10 18
  32 0024 03B58700 		ld	a0,8(a5)
  33 0028 E7000700 		jalr	a4
  34              	.LVL2:
  11:src/TCB.cpp   ****     thread_exit(); //zavrsetak niti, kernel preuzima kontrolu, u sebi sistemski poziv za gaÅ¡enje n
  35              		.loc 1 11 5 is_stmt 1
  36              		.loc 1 11 16 is_stmt 0
  37 002c 97000000 		call	_Z11thread_exitv@plt
  37      E7800000 
  38              	.LVL3:
  12:src/TCB.cpp   **** }
  39              		.loc 1 12 1
  40 0034 83308100 		ld	ra,8(sp)
  41              		.cfi_restore 1
  42 0038 03340100 		ld	s0,0(sp)
  43              		.cfi_restore 8
GAS LISTING /tmp/ccWO9qyv.s 			page 2


  44              		.cfi_def_cfa 2, 16
  45 003c 13010101 		addi	sp,sp,16
  46              		.cfi_def_cfa_offset 0
  47 0040 67800000 		jr	ra
  48              		.cfi_endproc
  49              	.LFE43:
  51              		.align	2
  52              		.globl	_ZN3TCB12createThreadEPFvPvES0_Pm
  54              	_ZN3TCB12createThreadEPFvPvES0_Pm:
  55              	.LFB44:
  13:src/TCB.cpp   **** 
  14:src/TCB.cpp   **** TCB *TCB::createThread(TCB::Body body, void *arg, uint64 *stack_space) {
  56              		.loc 1 14 72 is_stmt 1
  57              		.cfi_startproc
  58              		.cfi_personality 0x9b,DW.ref.__gxx_personality_v0
  59              		.cfi_lsda 0x1b,.LLSDA44
  60              	.LVL4:
  61 0044 130101FD 		addi	sp,sp,-48
  62              		.cfi_def_cfa_offset 48
  63 0048 23341102 		sd	ra,40(sp)
  64 004c 23308102 		sd	s0,32(sp)
  65 0050 233C9100 		sd	s1,24(sp)
  66 0054 23382101 		sd	s2,16(sp)
  67 0058 23343101 		sd	s3,8(sp)
  68 005c 23304101 		sd	s4,0(sp)
  69              		.cfi_offset 1, -8
  70              		.cfi_offset 8, -16
  71              		.cfi_offset 9, -24
  72              		.cfi_offset 18, -32
  73              		.cfi_offset 19, -40
  74              		.cfi_offset 20, -48
  75 0060 13040103 		addi	s0,sp,48
  76              		.cfi_def_cfa 8, 0
  77 0064 93090500 		mv	s3,a0
  78 0068 138A0500 		mv	s4,a1
  79 006c 13090600 		mv	s2,a2
  15:src/TCB.cpp   ****     return new TCB(body, arg, stack_space);
  80              		.loc 1 15 5
  81              	.LVL5:
  82              	.LBB17:
  83              	.LBB18:
  84              		.file 2 "src/../h/TCB.hpp"
   1:src/../h/TCB.hpp **** #ifndef TCB_H
   2:src/../h/TCB.hpp **** #define TCB_H
   3:src/../h/TCB.hpp **** 
   4:src/../h/TCB.hpp **** #include "../lib/hw.h"
   5:src/../h/TCB.hpp **** #include "list.hpp"
   6:src/../h/TCB.hpp **** #include "Scheduler.hpp"
   7:src/../h/TCB.hpp **** #include "MemoryAllocator.hpp"
   8:src/../h/TCB.hpp **** #include "Riscv.hpp"
   9:src/../h/TCB.hpp **** 
  10:src/../h/TCB.hpp **** class TCB{
  11:src/../h/TCB.hpp **** public:
  12:src/../h/TCB.hpp ****     using Body = void(*)(void*);
  13:src/../h/TCB.hpp **** 
  14:src/../h/TCB.hpp **** 	//overwrite new i delete
  15:src/../h/TCB.hpp ****     void *operator new(size_t size){
GAS LISTING /tmp/ccWO9qyv.s 			page 3


  16:src/../h/TCB.hpp ****       return MemoryAllocator::mem_alloc((size + MEM_BLOCK_SIZE-1)/MEM_BLOCK_SIZE);
  85              		.loc 2 16 7
  86              		.loc 2 16 40 is_stmt 0
  87 0070 13051000 		li	a0,1
  88              	.LVL6:
  89              	.LEHB0:
  90 0074 97000000 		call	_ZN15MemoryAllocator9mem_allocEm@plt
  90      E7800000 
  91              	.LVL7:
  92              	.LEHE0:
  93 007c 93040500 		mv	s1,a0
  94              	.LVL8:
  95              	.LBE18:
  96              	.LBE17:
  97              	.LBB19:
  98              	.LBB20:
  17:src/../h/TCB.hpp ****     }
  18:src/../h/TCB.hpp ****     void operator delete(void* el) noexcept{
  19:src/../h/TCB.hpp ****       MemoryAllocator::mem_free(el);
  20:src/../h/TCB.hpp ****     }
  21:src/../h/TCB.hpp ****     void *operator new[](size_t size){
  22:src/../h/TCB.hpp ****       return MemoryAllocator::mem_alloc((size + MEM_BLOCK_SIZE-1)/MEM_BLOCK_SIZE);
  23:src/../h/TCB.hpp ****     }
  24:src/../h/TCB.hpp ****     void operator delete[](void* el) noexcept{
  25:src/../h/TCB.hpp ****        MemoryAllocator::mem_free(el);
  26:src/../h/TCB.hpp ****     }
  27:src/../h/TCB.hpp **** 
  28:src/../h/TCB.hpp ****     //destruktor
  29:src/../h/TCB.hpp ****     ~TCB(){
  30:src/../h/TCB.hpp ****       MemoryAllocator::mem_free(stack);
  31:src/../h/TCB.hpp ****     }
  32:src/../h/TCB.hpp **** 
  33:src/../h/TCB.hpp **** 	//konstruktor
  34:src/../h/TCB.hpp **** 	explicit TCB(Body body, void* arg, uint64* stack_space) :
  35:src/../h/TCB.hpp **** 		body(body),
  36:src/../h/TCB.hpp **** 		finished(false),
  37:src/../h/TCB.hpp **** 		blocked(false)
  99              		.loc 2 37 16
 100 0080 23303501 		sd	s3,0(a0)
 101 0084 23040502 		sb	zero,40(a0)
 102 0088 A3040502 		sb	zero,41(a0)
  38:src/../h/TCB.hpp **** 	{
  39:src/../h/TCB.hpp ****         stack = stack_space != nullptr ? stack_space : nullptr;
 103              		.loc 2 39 9 is_stmt 1
 104              		.loc 2 39 15 is_stmt 0
 105 008c 23382501 		sd	s2,16(a0)
  40:src/../h/TCB.hpp ****         context.ra = (uint64)&wrapper; //postavi wrapper kao pocetnu tacku
 106              		.loc 2 40 9 is_stmt 1
 107              		.loc 2 40 20 is_stmt 0
 108 0090 97070000 		lla	a5,_ZN3TCB7wrapperEPv
 108      93870700 
 109 0098 233CF500 		sd	a5,24(a0)
  41:src/../h/TCB.hpp ****         context.sp = (uint64)&stack[DEFAULT_STACK_SIZE/sizeof(uint64)];
 110              		.loc 2 41 9 is_stmt 1
 111              		.loc 2 41 30 is_stmt 0
 112 009c 37160000 		li	a2,4096
 113 00a0 3309C900 		add	s2,s2,a2
GAS LISTING /tmp/ccWO9qyv.s 			page 4


 114              	.LVL9:
 115              		.loc 2 41 20
 116 00a4 23302503 		sd	s2,32(a0)
  42:src/../h/TCB.hpp ****         this->arg = arg;
 117              		.loc 2 42 9 is_stmt 1
 118              		.loc 2 42 19 is_stmt 0
 119 00a8 23344501 		sd	s4,8(a0)
  43:src/../h/TCB.hpp ****         if(body != nullptr) {Scheduler::put(this);}
 120              		.loc 2 43 9 is_stmt 1
 121 00ac 63860902 		beqz	s3,.L3
 122              		.loc 2 43 30
 123              	.LEHB1:
 124              		.loc 2 43 44 is_stmt 0
 125 00b0 97000000 		call	_ZN9Scheduler3putEP3TCB@plt
 125      E7800000 
 126              	.LVL10:
 127              	.LEHE1:
 128 00b8 6F000002 		j	.L3
 129              	.L6:
 130 00bc 13090500 		mv	s2,a0
 131              	.LVL11:
 132              	.LBE20:
 133              	.LBE19:
 134              	.LBB21:
 135              	.LBB22:
  19:src/../h/TCB.hpp ****     }
 136              		.loc 2 19 7 is_stmt 1
  19:src/../h/TCB.hpp ****     }
 137              		.loc 2 19 32 is_stmt 0
 138 00c0 13850400 		mv	a0,s1
 139 00c4 97000000 		call	_ZN15MemoryAllocator8mem_freeEPv@plt
 139      E7800000 
 140              	.LVL12:
 141 00cc 13050900 		mv	a0,s2
 142              	.LEHB2:
 143 00d0 97000000 		call	_Unwind_Resume@plt
 143      E7800000 
 144              	.LVL13:
 145              	.LEHE2:
 146              	.L3:
 147              	.LBE22:
 148              	.LBE21:
  16:src/TCB.cpp   **** }
 149              		.loc 1 16 1
 150 00d8 13850400 		mv	a0,s1
 151 00dc 83308102 		ld	ra,40(sp)
 152              		.cfi_restore 1
 153 00e0 03340102 		ld	s0,32(sp)
 154              		.cfi_restore 8
 155              		.cfi_def_cfa 2, 48
 156 00e4 83348101 		ld	s1,24(sp)
 157              		.cfi_restore 9
 158              	.LVL14:
 159 00e8 03390101 		ld	s2,16(sp)
 160              		.cfi_restore 18
 161 00ec 83398100 		ld	s3,8(sp)
 162              		.cfi_restore 19
GAS LISTING /tmp/ccWO9qyv.s 			page 5


 163              	.LVL15:
 164 00f0 033A0100 		ld	s4,0(sp)
 165              		.cfi_restore 20
 166              	.LVL16:
 167 00f4 13010103 		addi	sp,sp,48
 168              		.cfi_def_cfa_offset 0
 169 00f8 67800000 		jr	ra
 170              		.cfi_endproc
 171              	.LFE44:
 172              		.globl	__gxx_personality_v0
 173              		.section	.gcc_except_table,"a",@progbits
 174              	.LLSDA44:
 175 0000 FF       		.byte	0xff
 176 0001 FF       		.byte	0xff
 177 0002 03       		.byte	0x3
 178 0003 27       		.byte	0x27
 179 0004 00000000 		.4byte	.LEHB0-.LFB44
 180 0008 00000000 		.4byte	.LEHE0-.LEHB0
 181 000c 00000000 		.4byte	0
 182 0010 00       		.byte	0
 183 0011 00000000 		.4byte	.LEHB1-.LFB44
 184 0015 00000000 		.4byte	.LEHE1-.LEHB1
 185 0019 00000000 		.4byte	.L6-.LFB44
 186 001d 00       		.byte	0
 187 001e 00000000 		.4byte	.LEHB2-.LFB44
 188 0022 00000000 		.4byte	.LEHE2-.LEHB2
 189 0026 00000000 		.4byte	0
 190 002a 00       		.byte	0
 191              		.text
 193              		.align	2
 194              		.globl	_ZN3TCB5yieldEv
 196              	_ZN3TCB5yieldEv:
 197              	.LFB45:
  17:src/TCB.cpp   **** 
  18:src/TCB.cpp   **** void TCB::yield() {
 198              		.loc 1 18 19 is_stmt 1
 199              		.cfi_startproc
 200 00fc 130101FF 		addi	sp,sp,-16
 201              		.cfi_def_cfa_offset 16
 202 0100 23348100 		sd	s0,8(sp)
 203              		.cfi_offset 8, -8
 204 0104 13040101 		addi	s0,sp,16
 205              		.cfi_def_cfa 8, 0
  19:src/TCB.cpp   ****   //  pushRegisters();
  20:src/TCB.cpp   ****     __asm__ volatile ("mv a0, %0":: "r"(0x13)); //thread_dispatch
 206              		.loc 1 20 5
 207              		.loc 1 20 47 is_stmt 0
 208 0108 93073001 		li	a5,19
 209              	#APP
 210              	# 20 "src/TCB.cpp" 1
  21              	    __asm__ volatile ("ecall");
 211              		mv a0, a5
 212              	# 0 "" 2
 213              		.loc 1 21 5 is_stmt 1
 214              		.loc 1 21 31 is_stmt 0
 215              	# 21 "src/TCB.cpp" 1
  22              	   // popRegisters();
GAS LISTING /tmp/ccWO9qyv.s 			page 6


  23:src/TCB.cpp   **** }
 216              		ecall
 217              	# 0 "" 2
 218              		.loc 1 23 1
 219              	#NO_APP
 220 0114 03348100 		ld	s0,8(sp)
 221              		.cfi_restore 8
 222              		.cfi_def_cfa 2, 16
 223 0118 13010101 		addi	sp,sp,16
 224              		.cfi_def_cfa_offset 0
 225 011c 67800000 		jr	ra
 226              		.cfi_endproc
 227              	.LFE45:
 229              		.align	2
 230              		.globl	_ZN3TCB8dispatchEv
 232              	_ZN3TCB8dispatchEv:
 233              	.LFB46:
  24:src/TCB.cpp   **** 
  25:src/TCB.cpp   **** void TCB::dispatch() { //trenutno izvrsavanu korutinu zameni nekom drugom
 234              		.loc 1 25 22 is_stmt 1
 235              		.cfi_startproc
 236 0120 130101FE 		addi	sp,sp,-32
 237              		.cfi_def_cfa_offset 32
 238 0124 233C1100 		sd	ra,24(sp)
 239 0128 23388100 		sd	s0,16(sp)
 240 012c 23349100 		sd	s1,8(sp)
 241              		.cfi_offset 1, -8
 242              		.cfi_offset 8, -16
 243              		.cfi_offset 9, -24
 244 0130 13040102 		addi	s0,sp,32
 245              		.cfi_def_cfa 8, 0
  26:src/TCB.cpp   ****     TCB *old = running;
 246              		.loc 1 26 5
 247              		.loc 1 26 10 is_stmt 0
 248 0134 97040000 		ld	s1,.LANCHOR0
 248      83B40400 
 249              	.LVL17:
  27:src/TCB.cpp   ****     if(!old->isFinished() && !old->isBlocked()) {
 250              		.loc 1 27 5 is_stmt 1
 251              	.LBB23:
 252              	.LBB24:
  44:src/../h/TCB.hpp ****     }
  45:src/../h/TCB.hpp **** 
  46:src/../h/TCB.hpp **** 	//getteri i setteri
  47:src/../h/TCB.hpp ****     bool isFinished() const{ return finished; }
 253              		.loc 2 47 30
 254              		.loc 2 47 37 is_stmt 0
 255 013c 83C78402 		lbu	a5,40(s1)
 256              	.LVL18:
 257              	.LBE24:
 258              	.LBE23:
 259              		.loc 1 27 27
 260 0140 63960700 		bnez	a5,.L11
 261              	.LVL19:
 262              	.LBB25:
 263              	.LBB26:
  48:src/../h/TCB.hpp ****     void setFinished(bool value){ finished = value; }
GAS LISTING /tmp/ccWO9qyv.s 			page 7


  49:src/../h/TCB.hpp **** 
  50:src/../h/TCB.hpp ****     bool isBlocked() const{ return blocked; }
 264              		.loc 2 50 29 is_stmt 1
 265              		.loc 2 50 36 is_stmt 0
 266 0144 83C79402 		lbu	a5,41(s1)
 267              	.LVL20:
 268              	.LBE26:
 269              	.LBE25:
 270              		.loc 1 27 27
 271 0148 63800704 		beqz	a5,.L14
 272              	.L11:
  28:src/TCB.cpp   ****         Scheduler::put(old);
  29:src/TCB.cpp   ****     }
  30:src/TCB.cpp   ****     running = Scheduler::get();
 273              		.loc 1 30 5 is_stmt 1
 274              		.loc 1 30 29 is_stmt 0
 275 014c 97000000 		call	_ZN9Scheduler3getEv@plt
 275      E7800000 
 276              	.LVL21:
 277              		.loc 1 30 13
 278 0154 97070000 		sd	a0,.LANCHOR0,a5
 278      23B0A700 
  31:src/TCB.cpp   ****     if(running != nullptr && running != old) TCB::contextSwitch(&old->context, &running->context);
 279              		.loc 1 31 5 is_stmt 1
 280 015c 630C0500 		beqz	a0,.L10
 281              		.loc 1 31 27 is_stmt 0 discriminator 1
 282 0160 638AA400 		beq	s1,a0,.L10
 283              		.loc 1 31 46 is_stmt 1 discriminator 2
 284              		.loc 1 31 64 is_stmt 0 discriminator 2
 285 0164 93058501 		addi	a1,a0,24
 286 0168 13858401 		addi	a0,s1,24
 287 016c 97000000 		call	_ZN3TCB13contextSwitchEPNS_7ContextES1_@plt
 287      E7800000 
 288              	.LVL22:
 289              	.L10:
  32:src/TCB.cpp   **** }
 290              		.loc 1 32 1
 291 0174 83308101 		ld	ra,24(sp)
 292              		.cfi_remember_state
 293              		.cfi_restore 1
 294 0178 03340101 		ld	s0,16(sp)
 295              		.cfi_restore 8
 296              		.cfi_def_cfa 2, 32
 297 017c 83348100 		ld	s1,8(sp)
 298              		.cfi_restore 9
 299              	.LVL23:
 300 0180 13010102 		addi	sp,sp,32
 301              		.cfi_def_cfa_offset 0
 302 0184 67800000 		jr	ra
 303              	.LVL24:
 304              	.L14:
 305              		.cfi_restore_state
  28:src/TCB.cpp   ****         Scheduler::put(old);
 306              		.loc 1 28 9 is_stmt 1
  28:src/TCB.cpp   ****         Scheduler::put(old);
 307              		.loc 1 28 23 is_stmt 0
 308 0188 13850400 		mv	a0,s1
GAS LISTING /tmp/ccWO9qyv.s 			page 8


 309 018c 97000000 		call	_ZN9Scheduler3putEP3TCB@plt
 309      E7800000 
 310              	.LVL25:
 311 0194 6FF09FFB 		j	.L11
 312              		.cfi_endproc
 313              	.LFE46:
 315              		.align	2
 316              		.globl	_ZN3TCB4exitEv
 318              	_ZN3TCB4exitEv:
 319              	.LFB47:
  33:src/TCB.cpp   **** 
  34:src/TCB.cpp   **** int TCB::exit(){
 320              		.loc 1 34 16 is_stmt 1
 321              		.cfi_startproc
  35:src/TCB.cpp   ****     if(!TCB::running->isFinished()) {
 322              		.loc 1 35 5
 323              		.loc 1 35 33 is_stmt 0
 324 0198 97070000 		ld	a5,.LANCHOR0
 324      83B70700 
 325              	.LVL26:
 326              	.LBB27:
 327              	.LBB28:
  47:src/../h/TCB.hpp ****     void setFinished(bool value){ finished = value; }
 328              		.loc 2 47 30 is_stmt 1
  47:src/../h/TCB.hpp ****     void setFinished(bool value){ finished = value; }
 329              		.loc 2 47 37 is_stmt 0
 330 01a0 03C78702 		lbu	a4,40(a5)
 331              	.LVL27:
 332              	.LBE28:
 333              	.LBE27:
 334              		.loc 1 35 5
 335 01a4 631C0702 		bnez	a4,.L17
  34:src/TCB.cpp   ****     if(!TCB::running->isFinished()) {
 336              		.loc 1 34 16
 337 01a8 130101FF 		addi	sp,sp,-16
 338              		.cfi_def_cfa_offset 16
 339 01ac 23341100 		sd	ra,8(sp)
 340 01b0 23308100 		sd	s0,0(sp)
 341              		.cfi_offset 1, -8
 342              		.cfi_offset 8, -16
 343 01b4 13040101 		addi	s0,sp,16
 344              		.cfi_def_cfa 8, 0
  36:src/TCB.cpp   ****         TCB::running->setFinished(true);
 345              		.loc 1 36 9 is_stmt 1
 346              	.LVL28:
 347              	.LBB29:
 348              	.LBB30:
  48:src/../h/TCB.hpp **** 
 349              		.loc 2 48 35
  48:src/../h/TCB.hpp **** 
 350              		.loc 2 48 44 is_stmt 0
 351 01b8 13071000 		li	a4,1
 352 01bc 2384E702 		sb	a4,40(a5)
 353              	.LVL29:
 354              	.LBE30:
 355              	.LBE29:
  37:src/TCB.cpp   ****         TCB::dispatch();
GAS LISTING /tmp/ccWO9qyv.s 			page 9


 356              		.loc 1 37 9 is_stmt 1
 357              		.loc 1 37 22 is_stmt 0
 358 01c0 97000000 		call	_ZN3TCB8dispatchEv
 358      E7800000 
 359              	.LVL30:
  38:src/TCB.cpp   ****         return 0;
 360              		.loc 1 38 9 is_stmt 1
 361              		.loc 1 38 16 is_stmt 0
 362 01c8 13050000 		li	a0,0
  39:src/TCB.cpp   ****     }else return -1;
  40:src/TCB.cpp   **** }
 363              		.loc 1 40 1
 364 01cc 83308100 		ld	ra,8(sp)
 365              		.cfi_restore 1
 366 01d0 03340100 		ld	s0,0(sp)
 367              		.cfi_restore 8
 368              		.cfi_def_cfa 2, 16
 369 01d4 13010101 		addi	sp,sp,16
 370              		.cfi_def_cfa_offset 0
 371 01d8 67800000 		jr	ra
 372              	.L17:
  39:src/TCB.cpp   ****     }else return -1;
 373              		.loc 1 39 19
 374 01dc 1305F0FF 		li	a0,-1
 375              		.loc 1 40 1
 376 01e0 67800000 		ret
 377              		.cfi_endproc
 378              	.LFE47:
 380              		.globl	_ZN3TCB7runningE
 381              		.bss
 382              		.align	3
 383              		.set	.LANCHOR0,. + 0
 386              	_ZN3TCB7runningE:
 387 0000 00000000 		.zero	8
 387      00000000 
 388              		.text
 389              	.Letext0:
 390              		.file 3 "src/../h/../lib/hw.h"
 391              		.file 4 "src/../h/Scheduler.hpp"
 392              		.file 5 "src/../h/list.hpp"
 393              		.file 6 "src/../h/MemoryAllocator.hpp"
 394              		.file 7 "src/../h/Riscv.hpp"
 395              		.file 8 "src/../h/../test/../h/syscall_c.hpp"
 3314              		.align	3
 3317              	DW.ref.__gxx_personality_v0:
 3318 0000 00000000 		.dword	__gxx_personality_v0
 3318      00000000 
 3319              		.ident	"GCC: (Ubuntu 9.4.0-1ubuntu1~20.04) 9.4.0"
 3320              		.section	.note.GNU-stack,"",@progbits
GAS LISTING /tmp/ccWO9qyv.s 			page 10


DEFINED SYMBOLS
                            *ABS*:0000000000000000 TCB.cpp
     /tmp/ccWO9qyv.s:9      .text:0000000000000000 _ZN3TCB7wrapperEPv
     /tmp/ccWO9qyv.s:13     .text:0000000000000000 .L0 
     /tmp/ccWO9qyv.s:15     .text:0000000000000000 .L0 
     /tmp/ccWO9qyv.s:16     .text:0000000000000004 .L0 
     /tmp/ccWO9qyv.s:19     .text:000000000000000c .L0 
     /tmp/ccWO9qyv.s:20     .text:000000000000000c .L0 
     /tmp/ccWO9qyv.s:22     .text:0000000000000010 .L0 
     /tmp/ccWO9qyv.s:24     .text:0000000000000010 .L0 
     /tmp/ccWO9qyv.s:25     .text:0000000000000010 .L0 
     /tmp/ccWO9qyv.s:28     .text:0000000000000018 .L0 
     /tmp/ccWO9qyv.s:29     .text:0000000000000018 .L0 
     /tmp/ccWO9qyv.s:32     .text:0000000000000024 .L0 
     /tmp/ccWO9qyv.s:36     .text:000000000000002c .L0 
     /tmp/ccWO9qyv.s:37     .text:000000000000002c .L0 
     /tmp/ccWO9qyv.s:40     .text:0000000000000034 .L0 
     /tmp/ccWO9qyv.s:41     .text:0000000000000038 .L0 
     /tmp/ccWO9qyv.s:43     .text:000000000000003c .L0 
     /tmp/ccWO9qyv.s:44     .text:000000000000003c .L0 
     /tmp/ccWO9qyv.s:46     .text:0000000000000040 .L0 
     /tmp/ccWO9qyv.s:48     .text:0000000000000044 .L0 
     /tmp/ccWO9qyv.s:54     .text:0000000000000044 _ZN3TCB12createThreadEPFvPvES0_Pm
     /tmp/ccWO9qyv.s:57     .text:0000000000000044 .L0 
     /tmp/ccWO9qyv.s:3317   .data.rel.local.DW.ref.__gxx_personality_v0:0000000000000000 DW.ref.__gxx_personality_v0
     /tmp/ccWO9qyv.s:61     .text:0000000000000044 .L0 
     /tmp/ccWO9qyv.s:62     .text:0000000000000048 .L0 
     /tmp/ccWO9qyv.s:69     .text:0000000000000060 .L0 
     /tmp/ccWO9qyv.s:70     .text:0000000000000060 .L0 
     /tmp/ccWO9qyv.s:71     .text:0000000000000060 .L0 
     /tmp/ccWO9qyv.s:72     .text:0000000000000060 .L0 
     /tmp/ccWO9qyv.s:73     .text:0000000000000060 .L0 
     /tmp/ccWO9qyv.s:74     .text:0000000000000060 .L0 
     /tmp/ccWO9qyv.s:76     .text:0000000000000064 .L0 
     /tmp/ccWO9qyv.s:85     .text:0000000000000070 .L0 
     /tmp/ccWO9qyv.s:86     .text:0000000000000070 .L0 
     /tmp/ccWO9qyv.s:87     .text:0000000000000070 .L0 
     /tmp/ccWO9qyv.s:100    .text:0000000000000080 .L0 
     /tmp/ccWO9qyv.s:104    .text:000000000000008c .L0 
     /tmp/ccWO9qyv.s:105    .text:000000000000008c .L0 
     /tmp/ccWO9qyv.s:107    .text:0000000000000090 .L0 
     /tmp/ccWO9qyv.s:108    .text:0000000000000090 .L0 
     /tmp/ccWO9qyv.s:111    .text:000000000000009c .L0 
     /tmp/ccWO9qyv.s:112    .text:000000000000009c .L0 
     /tmp/ccWO9qyv.s:116    .text:00000000000000a4 .L0 
     /tmp/ccWO9qyv.s:118    .text:00000000000000a8 .L0 
     /tmp/ccWO9qyv.s:119    .text:00000000000000a8 .L0 
     /tmp/ccWO9qyv.s:121    .text:00000000000000ac .L0 
     /tmp/ccWO9qyv.s:124    .text:00000000000000b0 .L0 
     /tmp/ccWO9qyv.s:125    .text:00000000000000b0 .L0 
     /tmp/ccWO9qyv.s:137    .text:00000000000000c0 .L0 
     /tmp/ccWO9qyv.s:138    .text:00000000000000c0 .L0 
     /tmp/ccWO9qyv.s:150    .text:00000000000000d8 .L0 
     /tmp/ccWO9qyv.s:152    .text:00000000000000e0 .L0 
     /tmp/ccWO9qyv.s:154    .text:00000000000000e4 .L0 
     /tmp/ccWO9qyv.s:155    .text:00000000000000e4 .L0 
     /tmp/ccWO9qyv.s:157    .text:00000000000000e8 .L0 
GAS LISTING /tmp/ccWO9qyv.s 			page 11


     /tmp/ccWO9qyv.s:160    .text:00000000000000ec .L0 
     /tmp/ccWO9qyv.s:162    .text:00000000000000f0 .L0 
     /tmp/ccWO9qyv.s:165    .text:00000000000000f4 .L0 
     /tmp/ccWO9qyv.s:168    .text:00000000000000f8 .L0 
     /tmp/ccWO9qyv.s:170    .text:00000000000000fc .L0 
     /tmp/ccWO9qyv.s:196    .text:00000000000000fc _ZN3TCB5yieldEv
     /tmp/ccWO9qyv.s:199    .text:00000000000000fc .L0 
     /tmp/ccWO9qyv.s:200    .text:00000000000000fc .L0 
     /tmp/ccWO9qyv.s:201    .text:0000000000000100 .L0 
     /tmp/ccWO9qyv.s:203    .text:0000000000000104 .L0 
     /tmp/ccWO9qyv.s:205    .text:0000000000000108 .L0 
     /tmp/ccWO9qyv.s:207    .text:0000000000000108 .L0 
     /tmp/ccWO9qyv.s:208    .text:0000000000000108 .L0 
     /tmp/ccWO9qyv.s:214    .text:0000000000000110 .L0 
         src/TCB.cpp:21     .text:0000000000000110 .L0 
     /tmp/ccWO9qyv.s:220    .text:0000000000000114 .L0 
     /tmp/ccWO9qyv.s:221    .text:0000000000000118 .L0 
     /tmp/ccWO9qyv.s:222    .text:0000000000000118 .L0 
     /tmp/ccWO9qyv.s:224    .text:000000000000011c .L0 
     /tmp/ccWO9qyv.s:226    .text:0000000000000120 .L0 
     /tmp/ccWO9qyv.s:232    .text:0000000000000120 _ZN3TCB8dispatchEv
     /tmp/ccWO9qyv.s:235    .text:0000000000000120 .L0 
     /tmp/ccWO9qyv.s:236    .text:0000000000000120 .L0 
     /tmp/ccWO9qyv.s:237    .text:0000000000000124 .L0 
     /tmp/ccWO9qyv.s:241    .text:0000000000000130 .L0 
     /tmp/ccWO9qyv.s:242    .text:0000000000000130 .L0 
     /tmp/ccWO9qyv.s:243    .text:0000000000000130 .L0 
     /tmp/ccWO9qyv.s:245    .text:0000000000000134 .L0 
     /tmp/ccWO9qyv.s:247    .text:0000000000000134 .L0 
     /tmp/ccWO9qyv.s:248    .text:0000000000000134 .L0 
     /tmp/ccWO9qyv.s:253    .text:000000000000013c .L0 
     /tmp/ccWO9qyv.s:254    .text:000000000000013c .L0 
     /tmp/ccWO9qyv.s:255    .text:000000000000013c .L0 
     /tmp/ccWO9qyv.s:260    .text:0000000000000140 .L0 
     /tmp/ccWO9qyv.s:265    .text:0000000000000144 .L0 
     /tmp/ccWO9qyv.s:266    .text:0000000000000144 .L0 
     /tmp/ccWO9qyv.s:271    .text:0000000000000148 .L0 
     /tmp/ccWO9qyv.s:274    .text:000000000000014c .L0 
     /tmp/ccWO9qyv.s:275    .text:000000000000014c .L0 
     /tmp/ccWO9qyv.s:278    .text:0000000000000154 .L0 
     /tmp/ccWO9qyv.s:280    .text:000000000000015c .L0 
     /tmp/ccWO9qyv.s:282    .text:0000000000000160 .L0 
     /tmp/ccWO9qyv.s:284    .text:0000000000000164 .L0 
     /tmp/ccWO9qyv.s:285    .text:0000000000000164 .L0 
     /tmp/ccWO9qyv.s:291    .text:0000000000000174 .L0 
     /tmp/ccWO9qyv.s:292    .text:0000000000000178 .L0 
     /tmp/ccWO9qyv.s:293    .text:0000000000000178 .L0 
     /tmp/ccWO9qyv.s:295    .text:000000000000017c .L0 
     /tmp/ccWO9qyv.s:296    .text:000000000000017c .L0 
     /tmp/ccWO9qyv.s:298    .text:0000000000000180 .L0 
     /tmp/ccWO9qyv.s:301    .text:0000000000000184 .L0 
     /tmp/ccWO9qyv.s:305    .text:0000000000000188 .L0 
     /tmp/ccWO9qyv.s:307    .text:0000000000000188 .L0 
     /tmp/ccWO9qyv.s:308    .text:0000000000000188 .L0 
     /tmp/ccWO9qyv.s:312    .text:0000000000000198 .L0 
     /tmp/ccWO9qyv.s:318    .text:0000000000000198 _ZN3TCB4exitEv
     /tmp/ccWO9qyv.s:321    .text:0000000000000198 .L0 
GAS LISTING /tmp/ccWO9qyv.s 			page 12


     /tmp/ccWO9qyv.s:322    .text:0000000000000198 .L0 
     /tmp/ccWO9qyv.s:323    .text:0000000000000198 .L0 
     /tmp/ccWO9qyv.s:324    .text:0000000000000198 .L0 
     /tmp/ccWO9qyv.s:329    .text:00000000000001a0 .L0 
     /tmp/ccWO9qyv.s:330    .text:00000000000001a0 .L0 
     /tmp/ccWO9qyv.s:335    .text:00000000000001a4 .L0 
     /tmp/ccWO9qyv.s:337    .text:00000000000001a8 .L0 
     /tmp/ccWO9qyv.s:338    .text:00000000000001ac .L0 
     /tmp/ccWO9qyv.s:341    .text:00000000000001b4 .L0 
     /tmp/ccWO9qyv.s:342    .text:00000000000001b4 .L0 
     /tmp/ccWO9qyv.s:344    .text:00000000000001b8 .L0 
     /tmp/ccWO9qyv.s:349    .text:00000000000001b8 .L0 
     /tmp/ccWO9qyv.s:350    .text:00000000000001b8 .L0 
     /tmp/ccWO9qyv.s:351    .text:00000000000001b8 .L0 
     /tmp/ccWO9qyv.s:357    .text:00000000000001c0 .L0 
     /tmp/ccWO9qyv.s:358    .text:00000000000001c0 .L0 
     /tmp/ccWO9qyv.s:361    .text:00000000000001c8 .L0 
     /tmp/ccWO9qyv.s:362    .text:00000000000001c8 .L0 
     /tmp/ccWO9qyv.s:364    .text:00000000000001cc .L0 
     /tmp/ccWO9qyv.s:365    .text:00000000000001d0 .L0 
     /tmp/ccWO9qyv.s:367    .text:00000000000001d4 .L0 
     /tmp/ccWO9qyv.s:368    .text:00000000000001d4 .L0 
     /tmp/ccWO9qyv.s:370    .text:00000000000001d8 .L0 
     /tmp/ccWO9qyv.s:374    .text:00000000000001dc .L0 
     /tmp/ccWO9qyv.s:376    .text:00000000000001e0 .L0 
     /tmp/ccWO9qyv.s:377    .text:00000000000001e4 .L0 
     /tmp/ccWO9qyv.s:386    .bss:0000000000000000 _ZN3TCB7runningE
     /tmp/ccWO9qyv.s:383    .bss:0000000000000000 .LANCHOR0
     /tmp/ccWO9qyv.s:396    .text:00000000000001e4 .L0 
     /tmp/ccWO9qyv.s:29     .text:0000000000000018 .L0 
     /tmp/ccWO9qyv.s:108    .text:0000000000000090 .L0 
     /tmp/ccWO9qyv.s:248    .text:0000000000000134 .L0 
     /tmp/ccWO9qyv.s:278    .text:0000000000000154 .L0 
     /tmp/ccWO9qyv.s:324    .text:0000000000000198 .L0 
     /tmp/ccWO9qyv.s:146    .text:00000000000000d8 .L3
     /tmp/ccWO9qyv.s:272    .text:000000000000014c .L11
     /tmp/ccWO9qyv.s:304    .text:0000000000000188 .L14
     /tmp/ccWO9qyv.s:289    .text:0000000000000174 .L10
     /tmp/ccWO9qyv.s:372    .text:00000000000001dc .L17
     /tmp/ccWO9qyv.s:89     .text:0000000000000074 .LEHB0
     /tmp/ccWO9qyv.s:55     .text:0000000000000044 .LFB44
     /tmp/ccWO9qyv.s:92     .text:000000000000007c .LEHE0
     /tmp/ccWO9qyv.s:123    .text:00000000000000b0 .LEHB1
     /tmp/ccWO9qyv.s:127    .text:00000000000000b8 .LEHE1
     /tmp/ccWO9qyv.s:129    .text:00000000000000bc .L6
     /tmp/ccWO9qyv.s:142    .text:00000000000000d0 .LEHB2
     /tmp/ccWO9qyv.s:145    .text:00000000000000d8 .LEHE2
     /tmp/ccWO9qyv.s:1740   .debug_abbrev:0000000000000000 .Ldebug_abbrev0
     /tmp/ccWO9qyv.s:3255   .debug_str:000000000000076d .LASF134
     /tmp/ccWO9qyv.s:3059   .debug_str:00000000000001e1 .LASF135
     /tmp/ccWO9qyv.s:3101   .debug_str:0000000000000336 .LASF136
     /tmp/ccWO9qyv.s:5      .text:0000000000000000 .Ltext0
     /tmp/ccWO9qyv.s:389    .text:00000000000001e4 .Letext0
     /tmp/ccWO9qyv.s:2999   .debug_line:0000000000000000 .Ldebug_line0
     /tmp/ccWO9qyv.s:3099   .debug_str:0000000000000329 .LASF0
     /tmp/ccWO9qyv.s:3125   .debug_str:00000000000003f1 .LASF1
     /tmp/ccWO9qyv.s:3201   .debug_str:0000000000000616 .LASF2
GAS LISTING /tmp/ccWO9qyv.s 			page 13


     /tmp/ccWO9qyv.s:3209   .debug_str:0000000000000653 .LASF4
     /tmp/ccWO9qyv.s:3111   .debug_str:000000000000037f .LASF3
     /tmp/ccWO9qyv.s:3011   .debug_str:0000000000000063 .LASF5
     /tmp/ccWO9qyv.s:3175   .debug_str:0000000000000554 .LASF6
     /tmp/ccWO9qyv.s:3117   .debug_str:00000000000003bd .LASF7
     /tmp/ccWO9qyv.s:3077   .debug_str:0000000000000280 .LASF8
     /tmp/ccWO9qyv.s:3083   .debug_str:00000000000002b8 .LASF9
     /tmp/ccWO9qyv.s:3033   .debug_str:0000000000000118 .LASF10
     /tmp/ccWO9qyv.s:3067   .debug_str:0000000000000242 .LASF11
     /tmp/ccWO9qyv.s:3045   .debug_str:0000000000000172 .LASF12
     /tmp/ccWO9qyv.s:3031   .debug_str:0000000000000108 .LASF13
     /tmp/ccWO9qyv.s:3241   .debug_str:000000000000071c .LASF14
     /tmp/ccWO9qyv.s:3243   .debug_str:0000000000000728 .LASF15
     /tmp/ccWO9qyv.s:3229   .debug_str:00000000000006c6 .LASF16
     /tmp/ccWO9qyv.s:3075   .debug_str:0000000000000276 .LASF17
     /tmp/ccWO9qyv.s:3275   .debug_str:00000000000008b2 .LASF137
     /tmp/ccWO9qyv.s:3299   .debug_str:0000000000000974 .LASF138
     /tmp/ccWO9qyv.s:3089   .debug_str:00000000000002d7 .LASF139
     /tmp/ccWO9qyv.s:3277   .debug_str:00000000000008be .LASF18
     /tmp/ccWO9qyv.s:3269   .debug_str:0000000000000891 .LASF140
     /tmp/ccWO9qyv.s:3233   .debug_str:00000000000006ef .LASF19
     /tmp/ccWO9qyv.s:3159   .debug_str:00000000000004dc .LASF20
     /tmp/ccWO9qyv.s:3153   .debug_str:00000000000004b8 .LASF21
     /tmp/ccWO9qyv.s:3231   .debug_str:00000000000006dc .LASF23
     /tmp/ccWO9qyv.s:3065   .debug_str:000000000000022b .LASF28
     /tmp/ccWO9qyv.s:3205   .debug_str:0000000000000631 .LASF141
     /tmp/ccWO9qyv.s:3195   .debug_str:00000000000005eb .LASF142
     /tmp/ccWO9qyv.s:3121   .debug_str:00000000000003e3 .LASF22
     /tmp/ccWO9qyv.s:3027   .debug_str:00000000000000d6 .LASF24
     /tmp/ccWO9qyv.s:3131   .debug_str:0000000000000412 .LASF25
     /tmp/ccWO9qyv.s:3061   .debug_str:00000000000001ed .LASF26
     /tmp/ccWO9qyv.s:3173   .debug_str:0000000000000548 .LASF27
     /tmp/ccWO9qyv.s:3279   .debug_str:00000000000008c8 .LASF29
     /tmp/ccWO9qyv.s:3219   .debug_str:0000000000000681 .LASF30
     /tmp/ccWO9qyv.s:3115   .debug_str:00000000000003a0 .LASF31
     /tmp/ccWO9qyv.s:3309   .debug_str:00000000000009d4 .LASF32
     /tmp/ccWO9qyv.s:3301   .debug_str:0000000000000988 .LASF33
     /tmp/ccWO9qyv.s:3191   .debug_str:00000000000005dd .LASF34
     /tmp/ccWO9qyv.s:3005   .debug_str:0000000000000015 .LASF35
     /tmp/ccWO9qyv.s:3217   .debug_str:0000000000000679 .LASF36
     /tmp/ccWO9qyv.s:3185   .debug_str:000000000000059d .LASF37
     /tmp/ccWO9qyv.s:3247   .debug_str:0000000000000747 .LASF73
     /tmp/ccWO9qyv.s:3305   .debug_str:00000000000009bf .LASF38
     /tmp/ccWO9qyv.s:3079   .debug_str:0000000000000290 .LASF39
     /tmp/ccWO9qyv.s:3003   .debug_str:0000000000000005 .LASF42
     /tmp/ccWO9qyv.s:3133   .debug_str:000000000000041a .LASF44
     /tmp/ccWO9qyv.s:3141   .debug_str:0000000000000443 .LASF40
     /tmp/ccWO9qyv.s:3073   .debug_str:000000000000026a .LASF41
     /tmp/ccWO9qyv.s:3227   .debug_str:00000000000006b3 .LASF43
     /tmp/ccWO9qyv.s:3203   .debug_str:0000000000000624 .LASF45
     /tmp/ccWO9qyv.s:3211   .debug_str:000000000000065a .LASF46
     /tmp/ccWO9qyv.s:3009   .debug_str:0000000000000057 .LASF47
     /tmp/ccWO9qyv.s:3295   .debug_str:000000000000094f .LASF143
     /tmp/ccWO9qyv.s:3167   .debug_str:0000000000000505 .LASF144
     /tmp/ccWO9qyv.s:3249   .debug_str:000000000000074f .LASF48
     /tmp/ccWO9qyv.s:3155   .debug_str:00000000000004bd .LASF49
     /tmp/ccWO9qyv.s:3025   .debug_str:00000000000000ca .LASF50
GAS LISTING /tmp/ccWO9qyv.s 			page 14


     /tmp/ccWO9qyv.s:3263   .debug_str:000000000000085e .LASF51
     /tmp/ccWO9qyv.s:3289   .debug_str:0000000000000927 .LASF52
     /tmp/ccWO9qyv.s:3029   .debug_str:00000000000000f3 .LASF53
     /tmp/ccWO9qyv.s:3251   .debug_str:000000000000075a .LASF54
     /tmp/ccWO9qyv.s:3043   .debug_str:000000000000015c .LASF55
     /tmp/ccWO9qyv.s:3105   .debug_str:000000000000035e .LASF56
     /tmp/ccWO9qyv.s:3223   .debug_str:0000000000000698 .LASF66
     /tmp/ccWO9qyv.s:3239   .debug_str:000000000000070f .LASF57
     /tmp/ccWO9qyv.s:3285   .debug_str:00000000000008f6 .LASF58
     /tmp/ccWO9qyv.s:3253   .debug_str:0000000000000765 .LASF82
     /tmp/ccWO9qyv.s:3273   .debug_str:00000000000008aa .LASF59
     /tmp/ccWO9qyv.s:3267   .debug_str:000000000000087e .LASF60
     /tmp/ccWO9qyv.s:3127   .debug_str:0000000000000404 .LASF61
     /tmp/ccWO9qyv.s:3257   .debug_str:0000000000000831 .LASF63
     /tmp/ccWO9qyv.s:3053   .debug_str:00000000000001ba .LASF62
     /tmp/ccWO9qyv.s:3041   .debug_str:0000000000000149 .LASF64
     /tmp/ccWO9qyv.s:3225   .debug_str:00000000000006ae .LASF65
     /tmp/ccWO9qyv.s:3113   .debug_str:0000000000000391 .LASF67
     /tmp/ccWO9qyv.s:3001   .debug_str:0000000000000000 .LASF68
     /tmp/ccWO9qyv.s:3135   .debug_str:0000000000000427 .LASF69
     /tmp/ccWO9qyv.s:3259   .debug_str:0000000000000841 .LASF70
     /tmp/ccWO9qyv.s:3245   .debug_str:000000000000073e .LASF71
     /tmp/ccWO9qyv.s:3163   .debug_str:00000000000004e8 .LASF72
     /tmp/ccWO9qyv.s:3047   .debug_str:0000000000000182 .LASF145
     /tmp/ccWO9qyv.s:3007   .debug_str:000000000000002f .LASF146
     /tmp/ccWO9qyv.s:3221   .debug_str:000000000000068c .LASF74
     /tmp/ccWO9qyv.s:3123   .debug_str:00000000000003ec .LASF75
     /tmp/ccWO9qyv.s:3035   .debug_str:0000000000000127 .LASF76
     /tmp/ccWO9qyv.s:3019   .debug_str:00000000000000af .LASF77
     /tmp/ccWO9qyv.s:3097   .debug_str:0000000000000322 .LASF78
     /tmp/ccWO9qyv.s:3193   .debug_str:00000000000005e6 .LASF79
     /tmp/ccWO9qyv.s:3171   .debug_str:0000000000000538 .LASF80
     /tmp/ccWO9qyv.s:3017   .debug_str:0000000000000096 .LASF81
     /tmp/ccWO9qyv.s:3179   .debug_str:000000000000057c .LASF83
     /tmp/ccWO9qyv.s:3139   .debug_str:0000000000000439 .LASF84
     /tmp/ccWO9qyv.s:3021   .debug_str:00000000000000b4 .LASF85
     /tmp/ccWO9qyv.s:3303   .debug_str:00000000000009a3 .LASF86
     /tmp/ccWO9qyv.s:3149   .debug_str:000000000000048d .LASF87
     /tmp/ccWO9qyv.s:3015   .debug_str:0000000000000075 .LASF88
     /tmp/ccWO9qyv.s:3093   .debug_str:0000000000000301 .LASF89
     /tmp/ccWO9qyv.s:3151   .debug_str:0000000000000497 .LASF90
     /tmp/ccWO9qyv.s:3107   .debug_str:0000000000000369 .LASF91
     /tmp/ccWO9qyv.s:3169   .debug_str:000000000000050a .LASF92
     /tmp/ccWO9qyv.s:3143   .debug_str:0000000000000453 .LASF147
     /tmp/ccWO9qyv.s:3281   .debug_str:00000000000008e6 .LASF93
     /tmp/ccWO9qyv.s:3177   .debug_str:0000000000000567 .LASF94
     /tmp/ccWO9qyv.s:3063   .debug_str:0000000000000209 .LASF95
     /tmp/ccWO9qyv.s:3287   .debug_str:0000000000000918 .LASF96
     /tmp/ccWO9qyv.s:3081   .debug_str:000000000000029c .LASF97
     /tmp/ccWO9qyv.s:3085   .debug_str:00000000000002c6 .LASF98
     /tmp/ccWO9qyv.s:3095   .debug_str:000000000000030a .LASF99
     /tmp/ccWO9qyv.s:3265   .debug_str:0000000000000875 .LASF100
     /tmp/ccWO9qyv.s:3261   .debug_str:0000000000000849 .LASF101
     /tmp/ccWO9qyv.s:3197   .debug_str:0000000000000602 .LASF102
     /tmp/ccWO9qyv.s:3165   .debug_str:00000000000004f0 .LASF103
     /tmp/ccWO9qyv.s:3183   .debug_str:0000000000000596 .LASF104
     /tmp/ccWO9qyv.s:3187   .debug_str:00000000000005b6 .LASF105
GAS LISTING /tmp/ccWO9qyv.s 			page 15


     /tmp/ccWO9qyv.s:3161   .debug_str:00000000000004e1 .LASF106
     /tmp/ccWO9qyv.s:3119   .debug_str:00000000000003d0 .LASF107
     /tmp/ccWO9qyv.s:3291   .debug_str:0000000000000931 .LASF108
     /tmp/ccWO9qyv.s:3237   .debug_str:00000000000006fb .LASF109
     /tmp/ccWO9qyv.s:3157   .debug_str:00000000000004d4 .LASF110
     /tmp/ccWO9qyv.s:3069   .debug_str:0000000000000251 .LASF111
     /tmp/ccWO9qyv.s:3129   .debug_str:000000000000040a .LASF112
     /tmp/ccWO9qyv.s:3189   .debug_str:00000000000005c9 .LASF113
     /tmp/ccWO9qyv.s:3307   .debug_str:00000000000009cc .LASF114
     /tmp/ccWO9qyv.s:3271   .debug_str:0000000000000896 .LASF115
     /tmp/ccWO9qyv.s:3235   .debug_str:00000000000006f4 .LASF116
     /tmp/ccWO9qyv.s:3213   .debug_str:000000000000065f .LASF117
     /tmp/ccWO9qyv.s:3215   .debug_str:0000000000000672 .LASF118
     /tmp/ccWO9qyv.s:3039   .debug_str:0000000000000136 .LASF119
     /tmp/ccWO9qyv.s:3057   .debug_str:00000000000001db .LASF120
     /tmp/ccWO9qyv.s:3091   .debug_str:00000000000002ef .LASF121
     /tmp/ccWO9qyv.s:3103   .debug_str:0000000000000358 .LASF122
     /tmp/ccWO9qyv.s:3051   .debug_str:00000000000001a8 .LASF123
     /tmp/ccWO9qyv.s:3013   .debug_str:000000000000006a .LASF124
     /tmp/ccWO9qyv.s:3207   .debug_str:000000000000063b .LASF125
     /tmp/ccWO9qyv.s:3199   .debug_str:000000000000060b .LASF126
     /tmp/ccWO9qyv.s:3055   .debug_str:00000000000001c3 .LASF127
     /tmp/ccWO9qyv.s:3283   .debug_str:00000000000008ec .LASF128
     /tmp/ccWO9qyv.s:3293   .debug_str:0000000000000939 .LASF129
     /tmp/ccWO9qyv.s:3037   .debug_str:000000000000012c .LASF130
     /tmp/ccWO9qyv.s:3147   .debug_str:0000000000000477 .LASF148
     /tmp/ccWO9qyv.s:3023   .debug_str:00000000000000b9 .LASF149
     /tmp/ccWO9qyv.s:319    .text:0000000000000198 .LFB47
     /tmp/ccWO9qyv.s:378    .text:00000000000001e4 .LFE47
     /tmp/ccWO9qyv.s:326    .text:00000000000001a0 .LBB27
     /tmp/ccWO9qyv.s:333    .text:00000000000001a4 .LBE27
     /tmp/ccWO9qyv.s:2780   .debug_loc:0000000000000000 .LLST13
     /tmp/ccWO9qyv.s:347    .text:00000000000001b8 .LBB29
     /tmp/ccWO9qyv.s:355    .text:00000000000001c0 .LBE29
     /tmp/ccWO9qyv.s:2787   .debug_loc:0000000000000023 .LLST14
     /tmp/ccWO9qyv.s:2795   .debug_loc:0000000000000047 .LLST15
     /tmp/ccWO9qyv.s:359    .text:00000000000001c8 .LVL30
     /tmp/ccWO9qyv.s:233    .text:0000000000000120 .LFB46
     /tmp/ccWO9qyv.s:313    .text:0000000000000198 .LFE46
     /tmp/ccWO9qyv.s:2802   .debug_loc:000000000000006a .LLST10
     /tmp/ccWO9qyv.s:251    .text:000000000000013c .LBB23
     /tmp/ccWO9qyv.s:258    .text:0000000000000140 .LBE23
     /tmp/ccWO9qyv.s:2813   .debug_loc:00000000000000a0 .LLST11
     /tmp/ccWO9qyv.s:262    .text:0000000000000144 .LBB25
     /tmp/ccWO9qyv.s:269    .text:0000000000000148 .LBE25
     /tmp/ccWO9qyv.s:2820   .debug_loc:00000000000000c3 .LLST12
     /tmp/ccWO9qyv.s:276    .text:0000000000000154 .LVL21
     /tmp/ccWO9qyv.s:288    .text:0000000000000174 .LVL22
     /tmp/ccWO9qyv.s:310    .text:0000000000000194 .LVL25
     /tmp/ccWO9qyv.s:197    .text:00000000000000fc .LFB45
     /tmp/ccWO9qyv.s:227    .text:0000000000000120 .LFE45
     /tmp/ccWO9qyv.s:171    .text:00000000000000fc .LFE44
     /tmp/ccWO9qyv.s:2827   .debug_loc:00000000000000e6 .LLST1
     /tmp/ccWO9qyv.s:2845   .debug_loc:0000000000000132 .LLST2
     /tmp/ccWO9qyv.s:3137   .debug_str:000000000000042d .LASF131
     /tmp/ccWO9qyv.s:2863   .debug_loc:000000000000017e .LLST3
     /tmp/ccWO9qyv.s:82     .text:0000000000000070 .LBB17
GAS LISTING /tmp/ccWO9qyv.s 			page 16


     /tmp/ccWO9qyv.s:96     .text:0000000000000080 .LBE17
     /tmp/ccWO9qyv.s:2892   .debug_loc:00000000000001f4 .LLST4
     /tmp/ccWO9qyv.s:91     .text:000000000000007c .LVL7
     /tmp/ccWO9qyv.s:97     .text:0000000000000080 .LBB19
     /tmp/ccWO9qyv.s:133    .text:00000000000000c0 .LBE19
     /tmp/ccWO9qyv.s:2901   .debug_loc:0000000000000219 .LLST5
     /tmp/ccWO9qyv.s:2926   .debug_loc:000000000000027c .LLST6
     /tmp/ccWO9qyv.s:2940   .debug_loc:00000000000002b5 .LLST7
     /tmp/ccWO9qyv.s:2954   .debug_loc:00000000000002ee .LLST8
     /tmp/ccWO9qyv.s:126    .text:00000000000000b8 .LVL10
     /tmp/ccWO9qyv.s:134    .text:00000000000000c0 .LBB21
     /tmp/ccWO9qyv.s:148    .text:00000000000000d8 .LBE21
     /tmp/ccWO9qyv.s:2965   .debug_loc:0000000000000324 .LLST9
     /tmp/ccWO9qyv.s:140    .text:00000000000000cc .LVL12
     /tmp/ccWO9qyv.s:144    .text:00000000000000d8 .LVL13
     /tmp/ccWO9qyv.s:10     .text:0000000000000000 .LFB43
     /tmp/ccWO9qyv.s:49     .text:0000000000000044 .LFE43
     /tmp/ccWO9qyv.s:2972   .debug_loc:0000000000000347 .LLST0
     /tmp/ccWO9qyv.s:26     .text:0000000000000018 .LVL1
     /tmp/ccWO9qyv.s:38     .text:0000000000000034 .LVL3
     /tmp/ccWO9qyv.s:3071   .debug_str:0000000000000265 .LASF132
     /tmp/ccWO9qyv.s:3087   .debug_str:00000000000002d1 .LASF133
     /tmp/ccWO9qyv.s:3145   .debug_str:0000000000000461 .LASF150
     /tmp/ccWO9qyv.s:3297   .debug_str:0000000000000965 .LASF151
     /tmp/ccWO9qyv.s:3049   .debug_str:0000000000000190 .LASF152
     /tmp/ccWO9qyv.s:3181   .debug_str:0000000000000585 .LASF153
     /tmp/ccWO9qyv.s:3109   .debug_str:0000000000000373 .LASF154
     /tmp/ccWO9qyv.s:325    .text:00000000000001a0 .LVL26
     /tmp/ccWO9qyv.s:331    .text:00000000000001a4 .LVL27
     /tmp/ccWO9qyv.s:346    .text:00000000000001b8 .LVL28
     /tmp/ccWO9qyv.s:353    .text:00000000000001c0 .LVL29
     /tmp/ccWO9qyv.s:249    .text:000000000000013c .LVL17
     /tmp/ccWO9qyv.s:299    .text:0000000000000180 .LVL23
     /tmp/ccWO9qyv.s:303    .text:0000000000000188 .LVL24
     /tmp/ccWO9qyv.s:256    .text:0000000000000140 .LVL18
     /tmp/ccWO9qyv.s:261    .text:0000000000000144 .LVL19
     /tmp/ccWO9qyv.s:267    .text:0000000000000148 .LVL20
     /tmp/ccWO9qyv.s:60     .text:0000000000000044 .LVL4
     /tmp/ccWO9qyv.s:88     .text:0000000000000074 .LVL6
     /tmp/ccWO9qyv.s:163    .text:00000000000000f0 .LVL15
     /tmp/ccWO9qyv.s:166    .text:00000000000000f4 .LVL16
     /tmp/ccWO9qyv.s:114    .text:00000000000000a4 .LVL9
     /tmp/ccWO9qyv.s:131    .text:00000000000000c0 .LVL11
     /tmp/ccWO9qyv.s:81     .text:0000000000000070 .LVL5
     /tmp/ccWO9qyv.s:94     .text:0000000000000080 .LVL8
     /tmp/ccWO9qyv.s:158    .text:00000000000000e8 .LVL14
     /tmp/ccWO9qyv.s:14     .text:0000000000000000 .LVL0
     /tmp/ccWO9qyv.s:397    .debug_info:0000000000000000 .Ldebug_info0
     /tmp/ccWO9qyv.s:174    .gcc_except_table:0000000000000000 .LLSDA44

UNDEFINED SYMBOLS
_ZN5Riscv10popSppSpieEv
_Z11thread_exitv
_ZN15MemoryAllocator9mem_allocEm
_ZN9Scheduler3putEP3TCB
_ZN15MemoryAllocator8mem_freeEPv
_Unwind_Resume
GAS LISTING /tmp/ccWO9qyv.s 			page 17


__gxx_personality_v0
_ZN9Scheduler3getEv
_ZN3TCB13contextSwitchEPNS_7ContextES1_
